
rust-reverse:     file format elf64-x86-64


Disassembly of section .init:

0000000000005000 <_init>:
    5000:	f3 0f 1e fa          	endbr64
    5004:	48 83 ec 08          	sub    $0x8,%rsp
    5008:	48 8b 05 09 bd 03 00 	mov    0x3bd09(%rip),%rax        # 40d18 <__gmon_start__>
    500f:	48 85 c0             	test   %rax,%rax
    5012:	74 02                	je     5016 <_init+0x16>
    5014:	ff d0                	call   *%rax
    5016:	48 83 c4 08          	add    $0x8,%rsp
    501a:	c3                   	ret

Disassembly of section .plt:

0000000000005020 <.plt>:
    5020:	ff 35 72 b9 03 00    	push   0x3b972(%rip)        # 40998 <_GLOBAL_OFFSET_TABLE_+0x8>
    5026:	ff 25 74 b9 03 00    	jmp    *0x3b974(%rip)        # 409a0 <_GLOBAL_OFFSET_TABLE_+0x10>
    502c:	0f 1f 40 00          	nopl   0x0(%rax)

0000000000005030 <dl_iterate_phdr@plt>:
    5030:	ff 25 72 b9 03 00    	jmp    *0x3b972(%rip)        # 409a8 <dl_iterate_phdr@GLIBC_2.2.5>
    5036:	68 00 00 00 00       	push   $0x0
    503b:	e9 e0 ff ff ff       	jmp    5020 <.plt>

0000000000005040 <getpid@plt>:
    5040:	ff 25 6a b9 03 00    	jmp    *0x3b96a(%rip)        # 409b0 <getpid@GLIBC_2.2.5>
    5046:	68 01 00 00 00       	push   $0x1
    504b:	e9 d0 ff ff ff       	jmp    5020 <.plt>

0000000000005050 <snprintf@plt>:
    5050:	ff 25 62 b9 03 00    	jmp    *0x3b962(%rip)        # 409b8 <snprintf@GLIBC_2.2.5>
    5056:	68 02 00 00 00       	push   $0x2
    505b:	e9 c0 ff ff ff       	jmp    5020 <.plt>

0000000000005060 <strrchr@plt>:
    5060:	ff 25 5a b9 03 00    	jmp    *0x3b95a(%rip)        # 409c0 <strrchr@GLIBC_2.2.5>
    5066:	68 03 00 00 00       	push   $0x3
    506b:	e9 b0 ff ff ff       	jmp    5020 <.plt>

0000000000005070 <lseek@plt>:
    5070:	ff 25 52 b9 03 00    	jmp    *0x3b952(%rip)        # 409c8 <lseek@GLIBC_2.2.5>
    5076:	68 04 00 00 00       	push   $0x4
    507b:	e9 a0 ff ff ff       	jmp    5020 <.plt>

0000000000005080 <close@plt>:
    5080:	ff 25 4a b9 03 00    	jmp    *0x3b94a(%rip)        # 409d0 <close@GLIBC_2.2.5>
    5086:	68 05 00 00 00       	push   $0x5
    508b:	e9 90 ff ff ff       	jmp    5020 <.plt>

0000000000005090 <read@plt>:
    5090:	ff 25 42 b9 03 00    	jmp    *0x3b942(%rip)        # 409d8 <read@GLIBC_2.2.5>
    5096:	68 06 00 00 00       	push   $0x6
    509b:	e9 80 ff ff ff       	jmp    5020 <.plt>

00000000000050a0 <__tls_get_addr@plt>:
    50a0:	ff 25 3a b9 03 00    	jmp    *0x3b93a(%rip)        # 409e0 <__tls_get_addr@GLIBC_2.3>
    50a6:	68 07 00 00 00       	push   $0x7
    50ab:	e9 70 ff ff ff       	jmp    5020 <.plt>

00000000000050b0 <strcmp@plt>:
    50b0:	ff 25 32 b9 03 00    	jmp    *0x3b932(%rip)        # 409e8 <strcmp@GLIBC_2.2.5>
    50b6:	68 08 00 00 00       	push   $0x8
    50bb:	e9 60 ff ff ff       	jmp    5020 <.plt>

00000000000050c0 <__fxstat@plt>:
    50c0:	ff 25 2a b9 03 00    	jmp    *0x3b92a(%rip)        # 409f0 <__fxstat@GLIBC_2.2.5>
    50c6:	68 09 00 00 00       	push   $0x9
    50cb:	e9 50 ff ff ff       	jmp    5020 <.plt>

00000000000050d0 <open@plt>:
    50d0:	ff 25 22 b9 03 00    	jmp    *0x3b922(%rip)        # 409f8 <open@GLIBC_2.2.5>
    50d6:	68 0a 00 00 00       	push   $0xa
    50db:	e9 40 ff ff ff       	jmp    5020 <.plt>

00000000000050e0 <bsearch@plt>:
    50e0:	ff 25 1a b9 03 00    	jmp    *0x3b91a(%rip)        # 40a00 <bsearch@GLIBC_2.2.5>
    50e6:	68 0b 00 00 00       	push   $0xb
    50eb:	e9 30 ff ff ff       	jmp    5020 <.plt>

00000000000050f0 <_Unwind_Resume@plt>:
    50f0:	ff 25 12 b9 03 00    	jmp    *0x3b912(%rip)        # 40a08 <_Unwind_Resume@GCC_3.0>
    50f6:	68 0c 00 00 00       	push   $0xc
    50fb:	e9 20 ff ff ff       	jmp    5020 <.plt>

Disassembly of section .plt.got:

0000000000005100 <free@plt>:
    5100:	ff 25 42 b9 03 00    	jmp    *0x3b942(%rip)        # 40a48 <free@GLIBC_2.2.5>
    5106:	66 90                	xchg   %ax,%ax

0000000000005108 <abort@plt>:
    5108:	ff 25 5a b9 03 00    	jmp    *0x3b95a(%rip)        # 40a68 <abort@GLIBC_2.2.5>
    510e:	66 90                	xchg   %ax,%ax

0000000000005110 <__errno_location@plt>:
    5110:	ff 25 6a b9 03 00    	jmp    *0x3b96a(%rip)        # 40a80 <__errno_location@GLIBC_2.2.5>
    5116:	66 90                	xchg   %ax,%ax

0000000000005118 <strlen@plt>:
    5118:	ff 25 8a ba 03 00    	jmp    *0x3ba8a(%rip)        # 40ba8 <strlen@GLIBC_2.2.5>
    511e:	66 90                	xchg   %ax,%ax

0000000000005120 <memset@plt>:
    5120:	ff 25 32 bb 03 00    	jmp    *0x3bb32(%rip)        # 40c58 <memset@GLIBC_2.2.5>
    5126:	66 90                	xchg   %ax,%ax

0000000000005128 <memcpy@plt>:
    5128:	ff 25 02 bc 03 00    	jmp    *0x3bc02(%rip)        # 40d30 <memcpy@GLIBC_2.14>
    512e:	66 90                	xchg   %ax,%ax

0000000000005130 <malloc@plt>:
    5130:	ff 25 5a bc 03 00    	jmp    *0x3bc5a(%rip)        # 40d90 <malloc@GLIBC_2.2.5>
    5136:	66 90                	xchg   %ax,%ax

0000000000005138 <realloc@plt>:
    5138:	ff 25 da bc 03 00    	jmp    *0x3bcda(%rip)        # 40e18 <realloc@GLIBC_2.2.5>
    513e:	66 90                	xchg   %ax,%ax

Disassembly of section .text:

0000000000005140 <_start>:
    5140:	f3 0f 1e fa          	endbr64
    5144:	31 ed                	xor    %ebp,%ebp
    5146:	49 89 d1             	mov    %rdx,%r9
    5149:	5e                   	pop    %rsi
    514a:	48 89 e2             	mov    %rsp,%rdx
    514d:	48 83 e4 f0          	and    $0xfffffffffffffff0,%rsp
    5151:	50                   	push   %rax
    5152:	54                   	push   %rsp
    5153:	4c 8d 05 f6 a3 02 00 	lea    0x2a3f6(%rip),%r8        # 2f550 <__libc_csu_fini>
    515a:	48 8d 0d 7f a3 02 00 	lea    0x2a37f(%rip),%rcx        # 2f4e0 <__libc_csu_init>
    5161:	48 8d 3d 78 3b 00 00 	lea    0x3b78(%rip),%rdi        # 8ce0 <main>
    5168:	ff 15 42 bb 03 00    	call   *0x3bb42(%rip)        # 40cb0 <__libc_start_main@GLIBC_2.2.5>
    516e:	f4                   	hlt
    516f:	90                   	nop

0000000000005170 <deregister_tm_clones>:
    5170:	48 8d 3d c1 be 03 00 	lea    0x3bec1(%rip),%rdi        # 41038 <__TMC_END__>
    5177:	48 8d 05 ba be 03 00 	lea    0x3beba(%rip),%rax        # 41038 <__TMC_END__>
    517e:	48 39 f8             	cmp    %rdi,%rax
    5181:	74 15                	je     5198 <deregister_tm_clones+0x28>
    5183:	48 8b 05 1e b9 03 00 	mov    0x3b91e(%rip),%rax        # 40aa8 <_ITM_deregisterTMCloneTable>
    518a:	48 85 c0             	test   %rax,%rax
    518d:	74 09                	je     5198 <deregister_tm_clones+0x28>
    518f:	ff e0                	jmp    *%rax
    5191:	0f 1f 80 00 00 00 00 	nopl   0x0(%rax)
    5198:	c3                   	ret
    5199:	0f 1f 80 00 00 00 00 	nopl   0x0(%rax)

00000000000051a0 <register_tm_clones>:
    51a0:	48 8d 3d 91 be 03 00 	lea    0x3be91(%rip),%rdi        # 41038 <__TMC_END__>
    51a7:	48 8d 35 8a be 03 00 	lea    0x3be8a(%rip),%rsi        # 41038 <__TMC_END__>
    51ae:	48 29 fe             	sub    %rdi,%rsi
    51b1:	48 89 f0             	mov    %rsi,%rax
    51b4:	48 c1 ee 3f          	shr    $0x3f,%rsi
    51b8:	48 c1 f8 03          	sar    $0x3,%rax
    51bc:	48 01 c6             	add    %rax,%rsi
    51bf:	48 d1 fe             	sar    %rsi
    51c2:	74 14                	je     51d8 <register_tm_clones+0x38>
    51c4:	48 8b 05 9d bd 03 00 	mov    0x3bd9d(%rip),%rax        # 40f68 <_ITM_registerTMCloneTable>
    51cb:	48 85 c0             	test   %rax,%rax
    51ce:	74 08                	je     51d8 <register_tm_clones+0x38>
    51d0:	ff e0                	jmp    *%rax
    51d2:	66 0f 1f 44 00 00    	nopw   0x0(%rax,%rax,1)
    51d8:	c3                   	ret
    51d9:	0f 1f 80 00 00 00 00 	nopl   0x0(%rax)

00000000000051e0 <__do_global_dtors_aux>:
    51e0:	f3 0f 1e fa          	endbr64
    51e4:	80 3d 4d be 03 00 00 	cmpb   $0x0,0x3be4d(%rip)        # 41038 <__TMC_END__>
    51eb:	75 33                	jne    5220 <__do_global_dtors_aux+0x40>
    51ed:	55                   	push   %rbp
    51ee:	48 83 3d ca bd 03 00 	cmpq   $0x0,0x3bdca(%rip)        # 40fc0 <__cxa_finalize@GLIBC_2.2.5>
    51f5:	00 
    51f6:	48 89 e5             	mov    %rsp,%rbp
    51f9:	74 0d                	je     5208 <__do_global_dtors_aux+0x28>
    51fb:	48 8b 3d fe bd 03 00 	mov    0x3bdfe(%rip),%rdi        # 41000 <__dso_handle>
    5202:	ff 15 b8 bd 03 00    	call   *0x3bdb8(%rip)        # 40fc0 <__cxa_finalize@GLIBC_2.2.5>
    5208:	e8 63 ff ff ff       	call   5170 <deregister_tm_clones>
    520d:	c6 05 24 be 03 00 01 	movb   $0x1,0x3be24(%rip)        # 41038 <__TMC_END__>
    5214:	5d                   	pop    %rbp
    5215:	c3                   	ret
    5216:	66 2e 0f 1f 84 00 00 	cs nopw 0x0(%rax,%rax,1)
    521d:	00 00 00 
    5220:	c3                   	ret
    5221:	66 66 2e 0f 1f 84 00 	data16 cs nopw 0x0(%rax,%rax,1)
    5228:	00 00 00 00 
    522c:	0f 1f 40 00          	nopl   0x0(%rax)

0000000000005230 <frame_dummy>:
    5230:	f3 0f 1e fa          	endbr64
    5234:	e9 67 ff ff ff       	jmp    51a0 <register_tm_clones>
    5239:	0f 1f 80 00 00 00 00 	nopl   0x0(%rax)

0000000000005240 <_ZN5alloc7raw_vec11alloc_guard17h1bfa7b3fd4462045E>:
    5240:	48 83 ec 48          	sub    $0x48,%rsp
    5244:	48 89 f8             	mov    %rdi,%rax
    5247:	48 89 74 24 18       	mov    %rsi,0x18(%rsp)
    524c:	48 c7 44 24 40 08 00 	movq   $0x8,0x40(%rsp)
    5253:	00 00 
    5255:	48 8b 4c 24 40       	mov    0x40(%rsp),%rcx
    525a:	48 89 7c 24 10       	mov    %rdi,0x10(%rsp)
    525f:	48 89 44 24 08       	mov    %rax,0x8(%rsp)
    5264:	48 89 0c 24          	mov    %rcx,(%rsp)
    5268:	eb 2a                	jmp    5294 <_ZN5alloc7raw_vec11alloc_guard17h1bfa7b3fd4462045E+0x54>
    526a:	c6 44 24 27 01       	movb   $0x1,0x27(%rsp)
    526f:	eb 1a                	jmp    528b <_ZN5alloc7raw_vec11alloc_guard17h1bfa7b3fd4462045E+0x4b>
    5271:	c6 44 24 27 00       	movb   $0x0,0x27(%rsp)
    5276:	eb 13                	jmp    528b <_ZN5alloc7raw_vec11alloc_guard17h1bfa7b3fd4462045E+0x4b>
    5278:	48 b8 ff ff ff ff ff 	movabs $0x7fffffffffffffff,%rax
    527f:	ff ff 7f 
    5282:	48 39 44 24 18       	cmp    %rax,0x18(%rsp)
    5287:	77 e1                	ja     526a <_ZN5alloc7raw_vec11alloc_guard17h1bfa7b3fd4462045E+0x2a>
    5289:	eb e6                	jmp    5271 <_ZN5alloc7raw_vec11alloc_guard17h1bfa7b3fd4462045E+0x31>
    528b:	f6 44 24 27 01       	testb  $0x1,0x27(%rsp)
    5290:	75 1c                	jne    52ae <_ZN5alloc7raw_vec11alloc_guard17h1bfa7b3fd4462045E+0x6e>
    5292:	eb 0c                	jmp    52a0 <_ZN5alloc7raw_vec11alloc_guard17h1bfa7b3fd4462045E+0x60>
    5294:	48 8b 04 24          	mov    (%rsp),%rax
    5298:	48 83 f8 08          	cmp    $0x8,%rax
    529c:	72 da                	jb     5278 <_ZN5alloc7raw_vec11alloc_guard17h1bfa7b3fd4462045E+0x38>
    529e:	eb d1                	jmp    5271 <_ZN5alloc7raw_vec11alloc_guard17h1bfa7b3fd4462045E+0x31>
    52a0:	48 8b 44 24 10       	mov    0x10(%rsp),%rax
    52a5:	48 c7 00 00 00 00 00 	movq   $0x0,(%rax)
    52ac:	eb 27                	jmp    52d5 <_ZN5alloc7raw_vec11alloc_guard17h1bfa7b3fd4462045E+0x95>
    52ae:	48 c7 44 24 30 00 00 	movq   $0x0,0x30(%rsp)
    52b5:	00 00 
    52b7:	48 8b 44 24 28       	mov    0x28(%rsp),%rax
    52bc:	48 8b 4c 24 30       	mov    0x30(%rsp),%rcx
    52c1:	48 8b 54 24 10       	mov    0x10(%rsp),%rdx
    52c6:	48 89 42 08          	mov    %rax,0x8(%rdx)
    52ca:	48 89 4a 10          	mov    %rcx,0x10(%rdx)
    52ce:	48 c7 02 01 00 00 00 	movq   $0x1,(%rdx)
    52d5:	48 8b 44 24 08       	mov    0x8(%rsp),%rax
    52da:	48 83 c4 48          	add    $0x48,%rsp
    52de:	c3                   	ret
    52df:	90                   	nop

00000000000052e0 <_ZN4core3ptr20slice_from_raw_parts17h404681293f32a61aE>:
    52e0:	48 83 ec 30          	sub    $0x30,%rsp
    52e4:	48 89 3c 24          	mov    %rdi,(%rsp)
    52e8:	48 89 74 24 08       	mov    %rsi,0x8(%rsp)
    52ed:	48 8b 04 24          	mov    (%rsp),%rax
    52f1:	48 8b 4c 24 08       	mov    0x8(%rsp),%rcx
    52f6:	48 89 44 24 20       	mov    %rax,0x20(%rsp)
    52fb:	48 89 4c 24 28       	mov    %rcx,0x28(%rsp)
    5300:	48 8b 44 24 20       	mov    0x20(%rsp),%rax
    5305:	48 8b 4c 24 28       	mov    0x28(%rsp),%rcx
    530a:	48 89 44 24 10       	mov    %rax,0x10(%rsp)
    530f:	48 89 4c 24 18       	mov    %rcx,0x18(%rsp)
    5314:	48 8b 44 24 10       	mov    0x10(%rsp),%rax
    5319:	48 8b 54 24 18       	mov    0x18(%rsp),%rdx
    531e:	48 83 c4 30          	add    $0x30,%rsp
    5322:	c3                   	ret
    5323:	66 2e 0f 1f 84 00 00 	cs nopw 0x0(%rax,%rax,1)
    532a:	00 00 00 
    532d:	0f 1f 00             	nopl   (%rax)

0000000000005330 <_ZN4core3ptr20slice_from_raw_parts17h6443a7ea33b9e504E>:
    5330:	48 83 ec 30          	sub    $0x30,%rsp
    5334:	48 89 3c 24          	mov    %rdi,(%rsp)
    5338:	48 89 74 24 08       	mov    %rsi,0x8(%rsp)
    533d:	48 8b 04 24          	mov    (%rsp),%rax
    5341:	48 8b 4c 24 08       	mov    0x8(%rsp),%rcx
    5346:	48 89 44 24 20       	mov    %rax,0x20(%rsp)
    534b:	48 89 4c 24 28       	mov    %rcx,0x28(%rsp)
    5350:	48 8b 44 24 20       	mov    0x20(%rsp),%rax
    5355:	48 8b 4c 24 28       	mov    0x28(%rsp),%rcx
    535a:	48 89 44 24 10       	mov    %rax,0x10(%rsp)
    535f:	48 89 4c 24 18       	mov    %rcx,0x18(%rsp)
    5364:	48 8b 44 24 10       	mov    0x10(%rsp),%rax
    5369:	48 8b 54 24 18       	mov    0x18(%rsp),%rdx
    536e:	48 83 c4 30          	add    $0x30,%rsp
    5372:	c3                   	ret
    5373:	66 2e 0f 1f 84 00 00 	cs nopw 0x0(%rax,%rax,1)
    537a:	00 00 00 
    537d:	0f 1f 00             	nopl   (%rax)

0000000000005380 <_ZN4core3ptr24slice_from_raw_parts_mut17h199fda1d3479eb1cE>:
    5380:	48 83 ec 30          	sub    $0x30,%rsp
    5384:	48 89 3c 24          	mov    %rdi,(%rsp)
    5388:	48 89 74 24 08       	mov    %rsi,0x8(%rsp)
    538d:	48 8b 04 24          	mov    (%rsp),%rax
    5391:	48 8b 4c 24 08       	mov    0x8(%rsp),%rcx
    5396:	48 89 44 24 20       	mov    %rax,0x20(%rsp)
    539b:	48 89 4c 24 28       	mov    %rcx,0x28(%rsp)
    53a0:	48 8b 44 24 20       	mov    0x20(%rsp),%rax
    53a5:	48 8b 4c 24 28       	mov    0x28(%rsp),%rcx
    53aa:	48 89 44 24 10       	mov    %rax,0x10(%rsp)
    53af:	48 89 4c 24 18       	mov    %rcx,0x18(%rsp)
    53b4:	48 8b 44 24 10       	mov    0x10(%rsp),%rax
    53b9:	48 8b 54 24 18       	mov    0x18(%rsp),%rdx
    53be:	48 83 c4 30          	add    $0x30,%rsp
    53c2:	c3                   	ret
    53c3:	66 2e 0f 1f 84 00 00 	cs nopw 0x0(%rax,%rax,1)
    53ca:	00 00 00 
    53cd:	0f 1f 00             	nopl   (%rax)

00000000000053d0 <_ZN4core3ptr24slice_from_raw_parts_mut17hce8452b653aab221E>:
    53d0:	48 83 ec 30          	sub    $0x30,%rsp
    53d4:	48 89 3c 24          	mov    %rdi,(%rsp)
    53d8:	48 89 74 24 08       	mov    %rsi,0x8(%rsp)
    53dd:	48 8b 04 24          	mov    (%rsp),%rax
    53e1:	48 8b 4c 24 08       	mov    0x8(%rsp),%rcx
    53e6:	48 89 44 24 20       	mov    %rax,0x20(%rsp)
    53eb:	48 89 4c 24 28       	mov    %rcx,0x28(%rsp)
    53f0:	48 8b 44 24 20       	mov    0x20(%rsp),%rax
    53f5:	48 8b 4c 24 28       	mov    0x28(%rsp),%rcx
    53fa:	48 89 44 24 10       	mov    %rax,0x10(%rsp)
    53ff:	48 89 4c 24 18       	mov    %rcx,0x18(%rsp)
    5404:	48 8b 44 24 10       	mov    0x10(%rsp),%rax
    5409:	48 8b 54 24 18       	mov    0x18(%rsp),%rdx
    540e:	48 83 c4 30          	add    $0x30,%rsp
    5412:	c3                   	ret
    5413:	66 2e 0f 1f 84 00 00 	cs nopw 0x0(%rax,%rax,1)
    541a:	00 00 00 
    541d:	0f 1f 00             	nopl   (%rax)

0000000000005420 <_ZN4core3ptr31_$LT$impl$u20$$BP$mut$u20$T$GT$3add17h8cee38eb9eae6bd7E>:
    5420:	48 83 ec 18          	sub    $0x18,%rsp
    5424:	48 89 7c 24 08       	mov    %rdi,0x8(%rsp)
    5429:	48 89 74 24 10       	mov    %rsi,0x10(%rsp)
    542e:	48 8b 7c 24 08       	mov    0x8(%rsp),%rdi
    5433:	48 8b 74 24 10       	mov    0x10(%rsp),%rsi
    5438:	e8 13 00 00 00       	call   5450 <_ZN4core3ptr31_$LT$impl$u20$$BP$mut$u20$T$GT$6offset17h2b859837a423d5dbE>
    543d:	48 89 04 24          	mov    %rax,(%rsp)
    5441:	48 8b 04 24          	mov    (%rsp),%rax
    5445:	48 83 c4 18          	add    $0x18,%rsp
    5449:	c3                   	ret
    544a:	66 0f 1f 44 00 00    	nopw   0x0(%rax,%rax,1)

0000000000005450 <_ZN4core3ptr31_$LT$impl$u20$$BP$mut$u20$T$GT$6offset17h2b859837a423d5dbE>:
    5450:	48 83 ec 20          	sub    $0x20,%rsp
    5454:	48 89 7c 24 08       	mov    %rdi,0x8(%rsp)
    5459:	48 89 74 24 10       	mov    %rsi,0x10(%rsp)
    545e:	48 8b 44 24 08       	mov    0x8(%rsp),%rax
    5463:	48 03 44 24 10       	add    0x10(%rsp),%rax
    5468:	48 89 44 24 18       	mov    %rax,0x18(%rsp)
    546d:	48 8b 44 24 18       	mov    0x18(%rsp),%rax
    5472:	48 89 04 24          	mov    %rax,(%rsp)
    5476:	48 8b 04 24          	mov    (%rsp),%rax
    547a:	48 83 c4 20          	add    $0x20,%rsp
    547e:	c3                   	ret
    547f:	90                   	nop

0000000000005480 <_ZN4core3ptr31_$LT$impl$u20$$BP$mut$u20$T$GT$7is_null17h7d9538b2f39a686eE>:
    5480:	48 83 ec 10          	sub    $0x10,%rsp
    5484:	48 89 7c 24 08       	mov    %rdi,0x8(%rsp)
    5489:	48 8b 44 24 08       	mov    0x8(%rsp),%rax
    548e:	48 89 04 24          	mov    %rax,(%rsp)
    5492:	48 8b 04 24          	mov    (%rsp),%rax
    5496:	48 83 f8 00          	cmp    $0x0,%rax
    549a:	0f 94 c1             	sete   %cl
    549d:	80 e1 01             	and    $0x1,%cl
    54a0:	0f b6 d1             	movzbl %cl,%edx
    54a3:	89 d0                	mov    %edx,%eax
    54a5:	48 83 c4 10          	add    $0x10,%rsp
    54a9:	c3                   	ret
    54aa:	66 0f 1f 44 00 00    	nopw   0x0(%rax,%rax,1)

00000000000054b0 <_ZN4core3ptr33_$LT$impl$u20$$BP$const$u20$T$GT$12wrapping_add17h54f13583e10d7daaE>:
    54b0:	48 83 ec 18          	sub    $0x18,%rsp
    54b4:	48 89 7c 24 08       	mov    %rdi,0x8(%rsp)
    54b9:	48 89 74 24 10       	mov    %rsi,0x10(%rsp)
    54be:	48 8b 7c 24 08       	mov    0x8(%rsp),%rdi
    54c3:	48 8b 74 24 10       	mov    0x10(%rsp),%rsi
    54c8:	e8 13 00 00 00       	call   54e0 <_ZN4core3ptr33_$LT$impl$u20$$BP$const$u20$T$GT$15wrapping_offset17h791f1413b094c7e7E>
    54cd:	48 89 04 24          	mov    %rax,(%rsp)
    54d1:	48 8b 04 24          	mov    (%rsp),%rax
    54d5:	48 83 c4 18          	add    $0x18,%rsp
    54d9:	c3                   	ret
    54da:	66 0f 1f 44 00 00    	nopw   0x0(%rax,%rax,1)

00000000000054e0 <_ZN4core3ptr33_$LT$impl$u20$$BP$const$u20$T$GT$15wrapping_offset17h791f1413b094c7e7E>:
    54e0:	48 83 ec 20          	sub    $0x20,%rsp
    54e4:	48 89 7c 24 08       	mov    %rdi,0x8(%rsp)
    54e9:	48 89 74 24 10       	mov    %rsi,0x10(%rsp)
    54ee:	48 8b 44 24 08       	mov    0x8(%rsp),%rax
    54f3:	48 03 44 24 10       	add    0x10(%rsp),%rax
    54f8:	48 89 44 24 18       	mov    %rax,0x18(%rsp)
    54fd:	48 8b 44 24 18       	mov    0x18(%rsp),%rax
    5502:	48 89 04 24          	mov    %rax,(%rsp)
    5506:	48 8b 04 24          	mov    (%rsp),%rax
    550a:	48 83 c4 20          	add    $0x20,%rsp
    550e:	c3                   	ret
    550f:	90                   	nop

0000000000005510 <_ZN4core3ptr33_$LT$impl$u20$$BP$const$u20$T$GT$3add17h3694399fc00d710bE>:
    5510:	48 83 ec 18          	sub    $0x18,%rsp
    5514:	48 89 7c 24 08       	mov    %rdi,0x8(%rsp)
    5519:	48 89 74 24 10       	mov    %rsi,0x10(%rsp)
    551e:	48 8b 7c 24 08       	mov    0x8(%rsp),%rdi
    5523:	48 8b 74 24 10       	mov    0x10(%rsp),%rsi
    5528:	e8 13 00 00 00       	call   5540 <_ZN4core3ptr33_$LT$impl$u20$$BP$const$u20$T$GT$6offset17hba5ffc1711a34d24E>
    552d:	48 89 04 24          	mov    %rax,(%rsp)
    5531:	48 8b 04 24          	mov    (%rsp),%rax
    5535:	48 83 c4 18          	add    $0x18,%rsp
    5539:	c3                   	ret
    553a:	66 0f 1f 44 00 00    	nopw   0x0(%rax,%rax,1)

0000000000005540 <_ZN4core3ptr33_$LT$impl$u20$$BP$const$u20$T$GT$6offset17hba5ffc1711a34d24E>:
    5540:	48 83 ec 20          	sub    $0x20,%rsp
    5544:	48 89 7c 24 08       	mov    %rdi,0x8(%rsp)
    5549:	48 89 74 24 10       	mov    %rsi,0x10(%rsp)
    554e:	48 8b 44 24 08       	mov    0x8(%rsp),%rax
    5553:	48 03 44 24 10       	add    0x10(%rsp),%rax
    5558:	48 89 44 24 18       	mov    %rax,0x18(%rsp)
    555d:	48 8b 44 24 18       	mov    0x18(%rsp),%rax
    5562:	48 89 04 24          	mov    %rax,(%rsp)
    5566:	48 8b 04 24          	mov    (%rsp),%rax
    556a:	48 83 c4 20          	add    $0x20,%rsp
    556e:	c3                   	ret
    556f:	90                   	nop

0000000000005570 <_ZN4core3ptr33_$LT$impl$u20$$BP$const$u20$T$GT$7is_null17head030adf5740f7dE>:
    5570:	48 83 ec 10          	sub    $0x10,%rsp
    5574:	48 89 7c 24 08       	mov    %rdi,0x8(%rsp)
    5579:	48 8b 44 24 08       	mov    0x8(%rsp),%rax
    557e:	48 89 04 24          	mov    %rax,(%rsp)
    5582:	48 8b 04 24          	mov    (%rsp),%rax
    5586:	48 83 f8 00          	cmp    $0x0,%rax
    558a:	0f 94 c1             	sete   %cl
    558d:	80 e1 01             	and    $0x1,%cl
    5590:	0f b6 d1             	movzbl %cl,%edx
    5593:	89 d0                	mov    %edx,%eax
    5595:	48 83 c4 10          	add    $0x10,%rsp
    5599:	c3                   	ret
    559a:	66 0f 1f 44 00 00    	nopw   0x0(%rax,%rax,1)

00000000000055a0 <_ZN4core3ptr4read17he61223e304388b82E>:
    55a0:	48 81 ec 88 00 00 00 	sub    $0x88,%rsp
    55a7:	48 89 f8             	mov    %rdi,%rax
    55aa:	48 89 74 24 28       	mov    %rsi,0x28(%rsp)
    55af:	48 89 7c 24 20       	mov    %rdi,0x20(%rsp)
    55b4:	48 89 44 24 18       	mov    %rax,0x18(%rsp)
    55b9:	48 8b 7c 24 28       	mov    0x28(%rsp),%rdi
    55be:	48 8d 44 24 30       	lea    0x30(%rsp),%rax
    55c3:	48 89 44 24 78       	mov    %rax,0x78(%rsp)
    55c8:	48 8b 44 24 78       	mov    0x78(%rsp),%rax
    55cd:	48 89 84 24 80 00 00 	mov    %rax,0x80(%rsp)
    55d4:	00 
    55d5:	48 8b 84 24 80 00 00 	mov    0x80(%rsp),%rax
    55dc:	00 
    55dd:	48 89 7c 24 10       	mov    %rdi,0x10(%rsp)
    55e2:	48 89 44 24 08       	mov    %rax,0x8(%rsp)
    55e7:	48 8b 7c 24 10       	mov    0x10(%rsp),%rdi
    55ec:	48 8b 74 24 08       	mov    0x8(%rsp),%rsi
    55f1:	ba 01 00 00 00       	mov    $0x1,%edx
    55f6:	e8 c5 7c 00 00       	call   d2c0 <_ZN4core10intrinsics19copy_nonoverlapping17h5dc4da1ca2b98a00E>
    55fb:	48 8b 44 24 30       	mov    0x30(%rsp),%rax
    5600:	48 89 44 24 48       	mov    %rax,0x48(%rsp)
    5605:	48 8b 44 24 38       	mov    0x38(%rsp),%rax
    560a:	48 89 44 24 50       	mov    %rax,0x50(%rsp)
    560f:	48 8b 44 24 40       	mov    0x40(%rsp),%rax
    5614:	48 89 44 24 58       	mov    %rax,0x58(%rsp)
    5619:	48 8b 44 24 48       	mov    0x48(%rsp),%rax
    561e:	48 89 44 24 60       	mov    %rax,0x60(%rsp)
    5623:	48 8b 44 24 50       	mov    0x50(%rsp),%rax
    5628:	48 89 44 24 68       	mov    %rax,0x68(%rsp)
    562d:	48 8b 44 24 58       	mov    0x58(%rsp),%rax
    5632:	48 89 44 24 70       	mov    %rax,0x70(%rsp)
    5637:	48 8b 44 24 60       	mov    0x60(%rsp),%rax
    563c:	48 8b 4c 24 20       	mov    0x20(%rsp),%rcx
    5641:	48 89 01             	mov    %rax,(%rcx)
    5644:	48 8b 44 24 68       	mov    0x68(%rsp),%rax
    5649:	48 89 41 08          	mov    %rax,0x8(%rcx)
    564d:	48 8b 44 24 70       	mov    0x70(%rsp),%rax
    5652:	48 89 41 10          	mov    %rax,0x10(%rcx)
    5656:	48 8b 44 24 18       	mov    0x18(%rsp),%rax
    565b:	48 81 c4 88 00 00 00 	add    $0x88,%rsp
    5662:	c3                   	ret
    5663:	66 2e 0f 1f 84 00 00 	cs nopw 0x0(%rax,%rax,1)
    566a:	00 00 00 
    566d:	0f 1f 00             	nopl   (%rax)

0000000000005670 <_ZN4core3ptr5write17h688c25ccad3ec6e2E>:
    5670:	50                   	push   %rax
    5671:	48 89 3c 24          	mov    %rdi,(%rsp)
    5675:	48 8b 04 24          	mov    (%rsp),%rax
    5679:	48 8b 0e             	mov    (%rsi),%rcx
    567c:	48 89 08             	mov    %rcx,(%rax)
    567f:	48 8b 4e 08          	mov    0x8(%rsi),%rcx
    5683:	48 89 48 08          	mov    %rcx,0x8(%rax)
    5687:	48 8b 4e 10          	mov    0x10(%rsi),%rcx
    568b:	48 89 48 10          	mov    %rcx,0x10(%rax)
    568f:	58                   	pop    %rax
    5690:	c3                   	ret
    5691:	66 2e 0f 1f 84 00 00 	cs nopw 0x0(%rax,%rax,1)
    5698:	00 00 00 
    569b:	0f 1f 44 00 00       	nopl   0x0(%rax,%rax,1)

00000000000056a0 <_ZN4core3ptr5write17ha4b6344185909804E>:
    56a0:	48 83 ec 10          	sub    $0x10,%rsp
    56a4:	48 89 3c 24          	mov    %rdi,(%rsp)
    56a8:	40 88 74 24 0f       	mov    %sil,0xf(%rsp)
    56ad:	48 8b 04 24          	mov    (%rsp),%rax
    56b1:	8a 4c 24 0f          	mov    0xf(%rsp),%cl
    56b5:	88 08                	mov    %cl,(%rax)
    56b7:	48 83 c4 10          	add    $0x10,%rsp
    56bb:	c3                   	ret
    56bc:	0f 1f 40 00          	nopl   0x0(%rax)

00000000000056c0 <_ZN4core3ptr31_$LT$impl$u20$$BP$mut$u20$T$GT$3add17h9b24532368f8e661E>:
    56c0:	48 83 ec 18          	sub    $0x18,%rsp
    56c4:	48 89 7c 24 08       	mov    %rdi,0x8(%rsp)
    56c9:	48 89 74 24 10       	mov    %rsi,0x10(%rsp)
    56ce:	48 8b 7c 24 08       	mov    0x8(%rsp),%rdi
    56d3:	48 8b 74 24 10       	mov    0x10(%rsp),%rsi
    56d8:	e8 13 00 00 00       	call   56f0 <_ZN4core3ptr31_$LT$impl$u20$$BP$mut$u20$T$GT$6offset17h968c503b007cf270E>
    56dd:	48 89 04 24          	mov    %rax,(%rsp)
    56e1:	48 8b 04 24          	mov    (%rsp),%rax
    56e5:	48 83 c4 18          	add    $0x18,%rsp
    56e9:	c3                   	ret
    56ea:	66 0f 1f 44 00 00    	nopw   0x0(%rax,%rax,1)

00000000000056f0 <_ZN4core3ptr31_$LT$impl$u20$$BP$mut$u20$T$GT$6offset17h968c503b007cf270E>:
    56f0:	48 83 ec 20          	sub    $0x20,%rsp
    56f4:	48 89 7c 24 08       	mov    %rdi,0x8(%rsp)
    56f9:	48 89 74 24 10       	mov    %rsi,0x10(%rsp)
    56fe:	48 8b 44 24 08       	mov    0x8(%rsp),%rax
    5703:	48 69 4c 24 10 18 00 	imul   $0x18,0x10(%rsp),%rcx
    570a:	00 00 
    570c:	48 01 c8             	add    %rcx,%rax
    570f:	48 89 44 24 18       	mov    %rax,0x18(%rsp)
    5714:	48 8b 44 24 18       	mov    0x18(%rsp),%rax
    5719:	48 89 04 24          	mov    %rax,(%rsp)
    571d:	48 8b 04 24          	mov    (%rsp),%rax
    5721:	48 83 c4 20          	add    $0x20,%rsp
    5725:	c3                   	ret
    5726:	66 2e 0f 1f 84 00 00 	cs nopw 0x0(%rax,%rax,1)
    572d:	00 00 00 

0000000000005730 <_ZN4core3ptr31_$LT$impl$u20$$BP$mut$u20$T$GT$7is_null17h079a4b9e8506ec89E>:
    5730:	48 83 ec 10          	sub    $0x10,%rsp
    5734:	48 89 7c 24 08       	mov    %rdi,0x8(%rsp)
    5739:	48 8b 44 24 08       	mov    0x8(%rsp),%rax
    573e:	48 89 04 24          	mov    %rax,(%rsp)
    5742:	48 8b 04 24          	mov    (%rsp),%rax
    5746:	48 83 f8 00          	cmp    $0x0,%rax
    574a:	0f 94 c1             	sete   %cl
    574d:	80 e1 01             	and    $0x1,%cl
    5750:	0f b6 d1             	movzbl %cl,%edx
    5753:	89 d0                	mov    %edx,%eax
    5755:	48 83 c4 10          	add    $0x10,%rsp
    5759:	c3                   	ret
    575a:	66 0f 1f 44 00 00    	nopw   0x0(%rax,%rax,1)

0000000000005760 <_ZN4core3ptr33_$LT$impl$u20$$BP$const$u20$T$GT$7is_null17h108e377bca834264E>:
    5760:	48 83 ec 10          	sub    $0x10,%rsp
    5764:	48 89 7c 24 08       	mov    %rdi,0x8(%rsp)
    5769:	48 8b 44 24 08       	mov    0x8(%rsp),%rax
    576e:	48 89 04 24          	mov    %rax,(%rsp)
    5772:	48 8b 04 24          	mov    (%rsp),%rax
    5776:	48 83 f8 00          	cmp    $0x0,%rax
    577a:	0f 94 c1             	sete   %cl
    577d:	80 e1 01             	and    $0x1,%cl
    5780:	0f b6 d1             	movzbl %cl,%edx
    5783:	89 d0                	mov    %edx,%eax
    5785:	48 83 c4 10          	add    $0x10,%rsp
    5789:	c3                   	ret
    578a:	66 0f 1f 44 00 00    	nopw   0x0(%rax,%rax,1)

0000000000005790 <_ZN4core5slice29_$LT$impl$u20$$u5b$T$u5d$$GT$10as_mut_ptr17h01269ff9a8ae1313E>:
    5790:	48 83 ec 10          	sub    $0x10,%rsp
    5794:	48 89 3c 24          	mov    %rdi,(%rsp)
    5798:	48 89 74 24 08       	mov    %rsi,0x8(%rsp)
    579d:	48 8b 04 24          	mov    (%rsp),%rax
    57a1:	48 83 c4 10          	add    $0x10,%rsp
    57a5:	c3                   	ret
    57a6:	66 2e 0f 1f 84 00 00 	cs nopw 0x0(%rax,%rax,1)
    57ad:	00 00 00 

00000000000057b0 <_ZN4core5slice29_$LT$impl$u20$$u5b$T$u5d$$GT$17get_unchecked_mut17h6d0f3a40a7220973E>:
    57b0:	48 83 ec 28          	sub    $0x28,%rsp
    57b4:	48 89 7c 24 10       	mov    %rdi,0x10(%rsp)
    57b9:	48 89 74 24 18       	mov    %rsi,0x18(%rsp)
    57be:	48 89 54 24 20       	mov    %rdx,0x20(%rsp)
    57c3:	48 8b 7c 24 20       	mov    0x20(%rsp),%rdi
    57c8:	48 8b 74 24 10       	mov    0x10(%rsp),%rsi
    57cd:	48 8b 54 24 18       	mov    0x18(%rsp),%rdx
    57d2:	e8 29 4d 00 00       	call   a500 <_ZN68_$LT$usize$u20$as$u20$core..slice..SliceIndex$LT$$u5b$T$u5d$$GT$$GT$17get_unchecked_mut17h69dcef81459a2c26E>
    57d7:	48 89 44 24 08       	mov    %rax,0x8(%rsp)
    57dc:	48 8b 44 24 08       	mov    0x8(%rsp),%rax
    57e1:	48 83 c4 28          	add    $0x28,%rsp
    57e5:	c3                   	ret
    57e6:	66 2e 0f 1f 84 00 00 	cs nopw 0x0(%rax,%rax,1)
    57ed:	00 00 00 

00000000000057f0 <_ZN4core5slice74_$LT$impl$u20$core..ops..index..Index$LT$I$GT$$u20$for$u20$$u5b$T$u5d$$GT$5index17hafc3fdd76f1601e0E>:
    57f0:	48 83 ec 28          	sub    $0x28,%rsp
    57f4:	48 89 7c 24 10       	mov    %rdi,0x10(%rsp)
    57f9:	48 89 74 24 18       	mov    %rsi,0x18(%rsp)
    57fe:	48 89 54 24 20       	mov    %rdx,0x20(%rsp)
    5803:	48 8b 7c 24 20       	mov    0x20(%rsp),%rdi
    5808:	48 8b 74 24 10       	mov    0x10(%rsp),%rsi
    580d:	48 8b 54 24 18       	mov    0x18(%rsp),%rdx
    5812:	e8 89 4d 00 00       	call   a5a0 <_ZN68_$LT$usize$u20$as$u20$core..slice..SliceIndex$LT$$u5b$T$u5d$$GT$$GT$5index17ha8b03b371101ae7dE>
    5817:	48 89 44 24 08       	mov    %rax,0x8(%rsp)
    581c:	48 8b 44 24 08       	mov    0x8(%rsp),%rax
    5821:	48 83 c4 28          	add    $0x28,%rsp
    5825:	c3                   	ret
    5826:	66 2e 0f 1f 84 00 00 	cs nopw 0x0(%rax,%rax,1)
    582d:	00 00 00 

0000000000005830 <_ZN4core5slice77_$LT$impl$u20$core..ops..index..IndexMut$LT$I$GT$$u20$for$u20$$u5b$T$u5d$$GT$9index_mut17hbc9f1f83eed0e751E>:
    5830:	48 83 ec 28          	sub    $0x28,%rsp
    5834:	48 89 7c 24 10       	mov    %rdi,0x10(%rsp)
    5839:	48 89 74 24 18       	mov    %rsi,0x18(%rsp)
    583e:	48 8b 7c 24 10       	mov    0x10(%rsp),%rdi
    5843:	48 8b 74 24 18       	mov    0x18(%rsp),%rsi
    5848:	e8 33 37 00 00       	call   8f80 <_ZN90_$LT$core..ops..range..RangeFull$u20$as$u20$core..slice..SliceIndex$LT$$u5b$T$u5d$$GT$$GT$9index_mut17h25085c4ea7eee363E>
    584d:	48 89 44 24 08       	mov    %rax,0x8(%rsp)
    5852:	48 89 14 24          	mov    %rdx,(%rsp)
    5856:	48 8b 44 24 08       	mov    0x8(%rsp),%rax
    585b:	48 8b 14 24          	mov    (%rsp),%rdx
    585f:	48 83 c4 28          	add    $0x28,%rsp
    5863:	c3                   	ret
    5864:	66 2e 0f 1f 84 00 00 	cs nopw 0x0(%rax,%rax,1)
    586b:	00 00 00 
    586e:	66 90                	xchg   %ax,%ax

0000000000005870 <_ZN59_$LT$alloc..alloc..Global$u20$as$u20$core..alloc..Alloc$GT$12alloc_zeroed17h575a4389e2391a64E>:
    5870:	48 83 ec 38          	sub    $0x38,%rsp
    5874:	48 89 7c 24 18       	mov    %rdi,0x18(%rsp)
    5879:	48 89 74 24 20       	mov    %rsi,0x20(%rsp)
    587e:	48 89 54 24 28       	mov    %rdx,0x28(%rsp)
    5883:	48 8b 7c 24 20       	mov    0x20(%rsp),%rdi
    5888:	48 8b 74 24 28       	mov    0x28(%rsp),%rsi
    588d:	e8 3e 01 00 00       	call   59d0 <_ZN5alloc5alloc12alloc_zeroed17hbc36de01990b0f28E>
    5892:	48 89 44 24 10       	mov    %rax,0x10(%rsp)
    5897:	48 8b 7c 24 10       	mov    0x10(%rsp),%rdi
    589c:	e8 3f 53 00 00       	call   abe0 <_ZN4core3ptr8non_null16NonNull$LT$T$GT$3new17h02d85845f226e29cE>
    58a1:	48 89 44 24 08       	mov    %rax,0x8(%rsp)
    58a6:	48 8b 7c 24 08       	mov    0x8(%rsp),%rdi
    58ab:	e8 80 3b 00 00       	call   9430 <_ZN4core6option15Option$LT$T$GT$5ok_or17hb025a7e131e3b395E>
    58b0:	48 89 04 24          	mov    %rax,(%rsp)
    58b4:	48 8b 04 24          	mov    (%rsp),%rax
    58b8:	48 83 c4 38          	add    $0x38,%rsp
    58bc:	c3                   	ret
    58bd:	0f 1f 00             	nopl   (%rax)

00000000000058c0 <_ZN59_$LT$alloc..alloc..Global$u20$as$u20$core..alloc..Alloc$GT$5alloc17ha6b4b6aa7e6d2807E>:
    58c0:	48 83 ec 38          	sub    $0x38,%rsp
    58c4:	48 89 7c 24 18       	mov    %rdi,0x18(%rsp)
    58c9:	48 89 74 24 20       	mov    %rsi,0x20(%rsp)
    58ce:	48 89 54 24 28       	mov    %rdx,0x28(%rsp)
    58d3:	48 8b 7c 24 20       	mov    0x20(%rsp),%rdi
    58d8:	48 8b 74 24 28       	mov    0x28(%rsp),%rsi
    58dd:	e8 3e 01 00 00       	call   5a20 <_ZN5alloc5alloc5alloc17h7811c790b46a7aaeE>
    58e2:	48 89 44 24 10       	mov    %rax,0x10(%rsp)
    58e7:	48 8b 7c 24 10       	mov    0x10(%rsp),%rdi
    58ec:	e8 ef 52 00 00       	call   abe0 <_ZN4core3ptr8non_null16NonNull$LT$T$GT$3new17h02d85845f226e29cE>
    58f1:	48 89 44 24 08       	mov    %rax,0x8(%rsp)
    58f6:	48 8b 7c 24 08       	mov    0x8(%rsp),%rdi
    58fb:	e8 30 3b 00 00       	call   9430 <_ZN4core6option15Option$LT$T$GT$5ok_or17hb025a7e131e3b395E>
    5900:	48 89 04 24          	mov    %rax,(%rsp)
    5904:	48 8b 04 24          	mov    (%rsp),%rax
    5908:	48 83 c4 38          	add    $0x38,%rsp
    590c:	c3                   	ret
    590d:	0f 1f 00             	nopl   (%rax)

0000000000005910 <_ZN59_$LT$alloc..alloc..Global$u20$as$u20$core..alloc..Alloc$GT$7dealloc17h42b5d0f54f2dc70cE>:
    5910:	48 83 ec 28          	sub    $0x28,%rsp
    5914:	48 89 7c 24 08       	mov    %rdi,0x8(%rsp)
    5919:	48 89 74 24 10       	mov    %rsi,0x10(%rsp)
    591e:	48 89 54 24 18       	mov    %rdx,0x18(%rsp)
    5923:	48 89 4c 24 20       	mov    %rcx,0x20(%rsp)
    5928:	48 8b 7c 24 10       	mov    0x10(%rsp),%rdi
    592d:	e8 0e 54 00 00       	call   ad40 <_ZN4core3ptr8non_null16NonNull$LT$T$GT$6as_ptr17hf603f42e15b59c22E>
    5932:	48 89 04 24          	mov    %rax,(%rsp)
    5936:	48 8b 74 24 18       	mov    0x18(%rsp),%rsi
    593b:	48 8b 54 24 20       	mov    0x20(%rsp),%rdx
    5940:	48 8b 3c 24          	mov    (%rsp),%rdi
    5944:	e8 27 01 00 00       	call   5a70 <_ZN5alloc5alloc7dealloc17h8941f8232de3cc3fE>
    5949:	48 83 c4 28          	add    $0x28,%rsp
    594d:	c3                   	ret
    594e:	66 90                	xchg   %ax,%ax

0000000000005950 <_ZN59_$LT$alloc..alloc..Global$u20$as$u20$core..alloc..Alloc$GT$7realloc17hd422c367e5276958E>:
    5950:	48 83 ec 58          	sub    $0x58,%rsp
    5954:	48 89 7c 24 28       	mov    %rdi,0x28(%rsp)
    5959:	48 89 74 24 30       	mov    %rsi,0x30(%rsp)
    595e:	48 89 54 24 38       	mov    %rdx,0x38(%rsp)
    5963:	48 89 4c 24 40       	mov    %rcx,0x40(%rsp)
    5968:	4c 89 44 24 48       	mov    %r8,0x48(%rsp)
    596d:	48 8b 7c 24 30       	mov    0x30(%rsp),%rdi
    5972:	e8 c9 53 00 00       	call   ad40 <_ZN4core3ptr8non_null16NonNull$LT$T$GT$6as_ptr17hf603f42e15b59c22E>
    5977:	48 89 44 24 20       	mov    %rax,0x20(%rsp)
    597c:	48 8b 74 24 38       	mov    0x38(%rsp),%rsi
    5981:	48 8b 54 24 40       	mov    0x40(%rsp),%rdx
    5986:	48 8b 4c 24 48       	mov    0x48(%rsp),%rcx
    598b:	48 8b 7c 24 20       	mov    0x20(%rsp),%rdi
    5990:	e8 3b 01 00 00       	call   5ad0 <_ZN5alloc5alloc7realloc17hd9ab9c304dcf1f33E>
    5995:	48 89 44 24 18       	mov    %rax,0x18(%rsp)
    599a:	48 8b 7c 24 18       	mov    0x18(%rsp),%rdi
    599f:	e8 3c 52 00 00       	call   abe0 <_ZN4core3ptr8non_null16NonNull$LT$T$GT$3new17h02d85845f226e29cE>
    59a4:	48 89 44 24 10       	mov    %rax,0x10(%rsp)
    59a9:	48 8b 7c 24 10       	mov    0x10(%rsp),%rdi
    59ae:	e8 7d 3a 00 00       	call   9430 <_ZN4core6option15Option$LT$T$GT$5ok_or17hb025a7e131e3b395E>
    59b3:	48 89 44 24 08       	mov    %rax,0x8(%rsp)
    59b8:	48 8b 44 24 08       	mov    0x8(%rsp),%rax
    59bd:	48 83 c4 58          	add    $0x58,%rsp
    59c1:	c3                   	ret
    59c2:	66 2e 0f 1f 84 00 00 	cs nopw 0x0(%rax,%rax,1)
    59c9:	00 00 00 
    59cc:	0f 1f 40 00          	nopl   0x0(%rax)

00000000000059d0 <_ZN5alloc5alloc12alloc_zeroed17hbc36de01990b0f28E>:
    59d0:	48 83 ec 28          	sub    $0x28,%rsp
    59d4:	48 89 7c 24 18       	mov    %rdi,0x18(%rsp)
    59d9:	48 89 74 24 20       	mov    %rsi,0x20(%rsp)
    59de:	48 8d 7c 24 18       	lea    0x18(%rsp),%rdi
    59e3:	e8 f8 2c 00 00       	call   86e0 <_ZN4core5alloc6Layout4size17h9bf1fbf5534a4197E>
    59e8:	48 89 44 24 10       	mov    %rax,0x10(%rsp)
    59ed:	48 8d 7c 24 18       	lea    0x18(%rsp),%rdi
    59f2:	e8 f9 2c 00 00       	call   86f0 <_ZN4core5alloc6Layout5align17h657c4871dbba8b80E>
    59f7:	48 89 44 24 08       	mov    %rax,0x8(%rsp)
    59fc:	48 8b 7c 24 10       	mov    0x10(%rsp),%rdi
    5a01:	48 8b 74 24 08       	mov    0x8(%rsp),%rsi
    5a06:	ff 15 3c b2 03 00    	call   *0x3b23c(%rip)        # 40c48 <_GLOBAL_OFFSET_TABLE_+0x2b8>
    5a0c:	48 89 04 24          	mov    %rax,(%rsp)
    5a10:	48 8b 04 24          	mov    (%rsp),%rax
    5a14:	48 83 c4 28          	add    $0x28,%rsp
    5a18:	c3                   	ret
    5a19:	0f 1f 80 00 00 00 00 	nopl   0x0(%rax)

0000000000005a20 <_ZN5alloc5alloc5alloc17h7811c790b46a7aaeE>:
    5a20:	48 83 ec 28          	sub    $0x28,%rsp
    5a24:	48 89 7c 24 18       	mov    %rdi,0x18(%rsp)
    5a29:	48 89 74 24 20       	mov    %rsi,0x20(%rsp)
    5a2e:	48 8d 7c 24 18       	lea    0x18(%rsp),%rdi
    5a33:	e8 a8 2c 00 00       	call   86e0 <_ZN4core5alloc6Layout4size17h9bf1fbf5534a4197E>
    5a38:	48 89 44 24 10       	mov    %rax,0x10(%rsp)
    5a3d:	48 8d 7c 24 18       	lea    0x18(%rsp),%rdi
    5a42:	e8 a9 2c 00 00       	call   86f0 <_ZN4core5alloc6Layout5align17h657c4871dbba8b80E>
    5a47:	48 89 44 24 08       	mov    %rax,0x8(%rsp)
    5a4c:	48 8b 7c 24 10       	mov    0x10(%rsp),%rdi
    5a51:	48 8b 74 24 08       	mov    0x8(%rsp),%rsi
    5a56:	ff 15 74 b1 03 00    	call   *0x3b174(%rip)        # 40bd0 <_GLOBAL_OFFSET_TABLE_+0x240>
    5a5c:	48 89 04 24          	mov    %rax,(%rsp)
    5a60:	48 8b 04 24          	mov    (%rsp),%rax
    5a64:	48 83 c4 28          	add    $0x28,%rsp
    5a68:	c3                   	ret
    5a69:	0f 1f 80 00 00 00 00 	nopl   0x0(%rax)

0000000000005a70 <_ZN5alloc5alloc7dealloc17h8941f8232de3cc3fE>:
    5a70:	48 83 ec 38          	sub    $0x38,%rsp
    5a74:	48 89 7c 24 20       	mov    %rdi,0x20(%rsp)
    5a79:	48 89 74 24 28       	mov    %rsi,0x28(%rsp)
    5a7e:	48 89 54 24 30       	mov    %rdx,0x30(%rsp)
    5a83:	48 8b 7c 24 20       	mov    0x20(%rsp),%rdi
    5a88:	48 8d 44 24 28       	lea    0x28(%rsp),%rax
    5a8d:	48 89 7c 24 18       	mov    %rdi,0x18(%rsp)
    5a92:	48 89 c7             	mov    %rax,%rdi
    5a95:	e8 46 2c 00 00       	call   86e0 <_ZN4core5alloc6Layout4size17h9bf1fbf5534a4197E>
    5a9a:	48 89 44 24 10       	mov    %rax,0x10(%rsp)
    5a9f:	48 8d 7c 24 28       	lea    0x28(%rsp),%rdi
    5aa4:	e8 47 2c 00 00       	call   86f0 <_ZN4core5alloc6Layout5align17h657c4871dbba8b80E>
    5aa9:	48 89 44 24 08       	mov    %rax,0x8(%rsp)
    5aae:	48 8b 7c 24 18       	mov    0x18(%rsp),%rdi
    5ab3:	48 8b 74 24 10       	mov    0x10(%rsp),%rsi
    5ab8:	48 8b 54 24 08       	mov    0x8(%rsp),%rdx
    5abd:	ff 15 7d b1 03 00    	call   *0x3b17d(%rip)        # 40c40 <_GLOBAL_OFFSET_TABLE_+0x2b0>
    5ac3:	48 83 c4 38          	add    $0x38,%rsp
    5ac7:	c3                   	ret
    5ac8:	0f 1f 84 00 00 00 00 	nopl   0x0(%rax,%rax,1)
    5acf:	00 

0000000000005ad0 <_ZN5alloc5alloc7realloc17hd9ab9c304dcf1f33E>:
    5ad0:	48 83 ec 48          	sub    $0x48,%rsp
    5ad4:	48 89 7c 24 28       	mov    %rdi,0x28(%rsp)
    5ad9:	48 89 74 24 30       	mov    %rsi,0x30(%rsp)
    5ade:	48 89 54 24 38       	mov    %rdx,0x38(%rsp)
    5ae3:	48 89 4c 24 40       	mov    %rcx,0x40(%rsp)
    5ae8:	48 8b 7c 24 28       	mov    0x28(%rsp),%rdi
    5aed:	48 8d 44 24 30       	lea    0x30(%rsp),%rax
    5af2:	48 89 7c 24 20       	mov    %rdi,0x20(%rsp)
    5af7:	48 89 c7             	mov    %rax,%rdi
    5afa:	e8 e1 2b 00 00       	call   86e0 <_ZN4core5alloc6Layout4size17h9bf1fbf5534a4197E>
    5aff:	48 89 44 24 18       	mov    %rax,0x18(%rsp)
    5b04:	48 8d 7c 24 30       	lea    0x30(%rsp),%rdi
    5b09:	e8 e2 2b 00 00       	call   86f0 <_ZN4core5alloc6Layout5align17h657c4871dbba8b80E>
    5b0e:	48 89 44 24 10       	mov    %rax,0x10(%rsp)
    5b13:	48 8b 4c 24 40       	mov    0x40(%rsp),%rcx
    5b18:	48 8b 7c 24 20       	mov    0x20(%rsp),%rdi
    5b1d:	48 8b 74 24 18       	mov    0x18(%rsp),%rsi
    5b22:	48 8b 54 24 10       	mov    0x10(%rsp),%rdx
    5b27:	ff 15 6b b4 03 00    	call   *0x3b46b(%rip)        # 40f98 <_GLOBAL_OFFSET_TABLE_+0x608>
    5b2d:	48 89 44 24 08       	mov    %rax,0x8(%rsp)
    5b32:	48 8b 44 24 08       	mov    0x8(%rsp),%rax
    5b37:	48 83 c4 48          	add    $0x48,%rsp
    5b3b:	c3                   	ret
    5b3c:	0f 1f 40 00          	nopl   0x0(%rax)

0000000000005b40 <_ZN5alloc7raw_vec15RawVec$LT$T$GT$13with_capacity17h4e7b9ab7129db0abE>:
    5b40:	48 83 ec 28          	sub    $0x28,%rsp
    5b44:	31 f6                	xor    %esi,%esi
    5b46:	48 89 7c 24 18       	mov    %rdi,0x18(%rsp)
    5b4b:	48 8b 7c 24 18       	mov    0x18(%rsp),%rdi
    5b50:	e8 2b 03 00 00       	call   5e80 <_ZN5alloc7raw_vec19RawVec$LT$T$C$A$GT$11allocate_in17heab7695257ce7967E>
    5b55:	48 89 44 24 10       	mov    %rax,0x10(%rsp)
    5b5a:	48 89 54 24 08       	mov    %rdx,0x8(%rsp)
    5b5f:	48 8b 44 24 10       	mov    0x10(%rsp),%rax
    5b64:	48 8b 54 24 08       	mov    0x8(%rsp),%rdx
    5b69:	48 83 c4 28          	add    $0x28,%rsp
    5b6d:	c3                   	ret
    5b6e:	66 90                	xchg   %ax,%ax

0000000000005b70 <_ZN5alloc7raw_vec15RawVec$LT$T$GT$13with_capacity17hf2c036b639f0b016E>:
    5b70:	48 83 ec 28          	sub    $0x28,%rsp
    5b74:	31 f6                	xor    %esi,%esi
    5b76:	48 89 7c 24 18       	mov    %rdi,0x18(%rsp)
    5b7b:	48 8b 7c 24 18       	mov    0x18(%rsp),%rdi
    5b80:	e8 5b 00 00 00       	call   5be0 <_ZN5alloc7raw_vec19RawVec$LT$T$C$A$GT$11allocate_in17h5c697ac51789c6a8E>
    5b85:	48 89 44 24 10       	mov    %rax,0x10(%rsp)
    5b8a:	48 89 54 24 08       	mov    %rdx,0x8(%rsp)
    5b8f:	48 8b 44 24 10       	mov    0x10(%rsp),%rax
    5b94:	48 8b 54 24 08       	mov    0x8(%rsp),%rdx
    5b99:	48 83 c4 28          	add    $0x28,%rsp
    5b9d:	c3                   	ret
    5b9e:	66 90                	xchg   %ax,%ax

0000000000005ba0 <_ZN5alloc7raw_vec15RawVec$LT$T$GT$14from_raw_parts17h12a2b27390b6f793E>:
    5ba0:	48 83 ec 38          	sub    $0x38,%rsp
    5ba4:	48 89 7c 24 10       	mov    %rdi,0x10(%rsp)
    5ba9:	48 89 74 24 18       	mov    %rsi,0x18(%rsp)
    5bae:	48 8b 7c 24 10       	mov    0x10(%rsp),%rdi
    5bb3:	e8 98 41 00 00       	call   9d50 <_ZN4core3ptr6unique15Unique$LT$T$GT$13new_unchecked17hc921813913992599E>
    5bb8:	48 89 44 24 08       	mov    %rax,0x8(%rsp)
    5bbd:	48 8b 44 24 18       	mov    0x18(%rsp),%rax
    5bc2:	48 8b 4c 24 08       	mov    0x8(%rsp),%rcx
    5bc7:	48 89 4c 24 20       	mov    %rcx,0x20(%rsp)
    5bcc:	48 89 44 24 28       	mov    %rax,0x28(%rsp)
    5bd1:	48 8b 44 24 20       	mov    0x20(%rsp),%rax
    5bd6:	48 8b 54 24 28       	mov    0x28(%rsp),%rdx
    5bdb:	48 83 c4 38          	add    $0x38,%rsp
    5bdf:	c3                   	ret

0000000000005be0 <_ZN5alloc7raw_vec19RawVec$LT$T$C$A$GT$11allocate_in17h5c697ac51789c6a8E>:
    5be0:	48 81 ec 28 01 00 00 	sub    $0x128,%rsp
    5be7:	48 89 7c 24 78       	mov    %rdi,0x78(%rsp)
    5bec:	40 80 e6 01          	and    $0x1,%sil
    5bf0:	40 88 b4 24 87 00 00 	mov    %sil,0x87(%rsp)
    5bf7:	00 
    5bf8:	48 c7 84 24 18 01 00 	movq   $0x1,0x118(%rsp)
    5bff:	00 01 00 00 00 
    5c04:	48 8b 84 24 18 01 00 	mov    0x118(%rsp),%rax
    5c0b:	00 
    5c0c:	48 89 44 24 70       	mov    %rax,0x70(%rsp)
    5c11:	eb 0f                	jmp    5c22 <_ZN5alloc7raw_vec19RawVec$LT$T$C$A$GT$11allocate_in17h5c697ac51789c6a8E+0x42>
    5c13:	48 8b bc 24 08 01 00 	mov    0x108(%rsp),%rdi
    5c1a:	00 
    5c1b:	e8 d0 f4 ff ff       	call   50f0 <_Unwind_Resume@plt>
    5c20:	0f 0b                	ud2
    5c22:	48 8b 44 24 70       	mov    0x70(%rsp),%rax
    5c27:	48 89 84 24 a0 00 00 	mov    %rax,0xa0(%rsp)
    5c2e:	00 
    5c2f:	48 8b 7c 24 78       	mov    0x78(%rsp),%rdi
    5c34:	48 8b b4 24 a0 00 00 	mov    0xa0(%rsp),%rsi
    5c3b:	00 
    5c3c:	e8 7f 5c 00 00       	call   b8c0 <_ZN4core3num23_$LT$impl$u20$usize$GT$11checked_mul17hf1166bc1e8d0e348E>
    5c41:	48 89 54 24 68       	mov    %rdx,0x68(%rsp)
    5c46:	48 89 44 24 60       	mov    %rax,0x60(%rsp)
    5c4b:	eb 02                	jmp    5c4f <_ZN5alloc7raw_vec19RawVec$LT$T$C$A$GT$11allocate_in17h5c697ac51789c6a8E+0x6f>
    5c4d:	eb c4                	jmp    5c13 <_ZN5alloc7raw_vec19RawVec$LT$T$C$A$GT$11allocate_in17h5c697ac51789c6a8E+0x33>
    5c4f:	48 8b 7c 24 60       	mov    0x60(%rsp),%rdi
    5c54:	48 8b 74 24 68       	mov    0x68(%rsp),%rsi
    5c59:	e8 32 34 00 00       	call   9090 <_ZN4core6option15Option$LT$T$GT$14unwrap_or_else17hd46995080191addeE>
    5c5e:	48 89 44 24 58       	mov    %rax,0x58(%rsp)
    5c63:	eb 00                	jmp    5c65 <_ZN5alloc7raw_vec19RawVec$LT$T$C$A$GT$11allocate_in17h5c697ac51789c6a8E+0x85>
    5c65:	48 8b 44 24 58       	mov    0x58(%rsp),%rax
    5c6a:	48 89 84 24 a8 00 00 	mov    %rax,0xa8(%rsp)
    5c71:	00 
    5c72:	48 8b b4 24 a8 00 00 	mov    0xa8(%rsp),%rsi
    5c79:	00 
    5c7a:	48 8d bc 24 b8 00 00 	lea    0xb8(%rsp),%rdi
    5c81:	00 
    5c82:	e8 b9 f5 ff ff       	call   5240 <_ZN5alloc7raw_vec11alloc_guard17h1bfa7b3fd4462045E>
    5c87:	eb 00                	jmp    5c89 <_ZN5alloc7raw_vec19RawVec$LT$T$C$A$GT$11allocate_in17h5c697ac51789c6a8E+0xa9>
    5c89:	48 8d bc 24 b8 00 00 	lea    0xb8(%rsp),%rdi
    5c90:	00 
    5c91:	e8 6a 1d 00 00       	call   7a00 <_ZN4core6result19Result$LT$T$C$E$GT$14unwrap_or_else17hef51292b9875757bE>
    5c96:	eb 00                	jmp    5c98 <_ZN5alloc7raw_vec19RawVec$LT$T$C$A$GT$11allocate_in17h5c697ac51789c6a8E+0xb8>
    5c98:	48 83 bc 24 a8 00 00 	cmpq   $0x0,0xa8(%rsp)
    5c9f:	00 00 
    5ca1:	74 1b                	je     5cbe <_ZN5alloc7raw_vec19RawVec$LT$T$C$A$GT$11allocate_in17h5c697ac51789c6a8E+0xde>
    5ca3:	48 c7 84 24 20 01 00 	movq   $0x1,0x120(%rsp)
    5caa:	00 01 00 00 00 
    5caf:	48 8b 84 24 20 01 00 	mov    0x120(%rsp),%rax
    5cb6:	00 
    5cb7:	48 89 44 24 50       	mov    %rax,0x50(%rsp)
    5cbc:	eb 0f                	jmp    5ccd <_ZN5alloc7raw_vec19RawVec$LT$T$C$A$GT$11allocate_in17h5c697ac51789c6a8E+0xed>
    5cbe:	e8 cd 50 00 00       	call   ad90 <_ZN4core3ptr8non_null16NonNull$LT$T$GT$8dangling17h69797d69852a0865E>
    5cc3:	48 89 44 24 48       	mov    %rax,0x48(%rsp)
    5cc8:	e9 7f 01 00 00       	jmp    5e4c <_ZN5alloc7raw_vec19RawVec$LT$T$C$A$GT$11allocate_in17h5c697ac51789c6a8E+0x26c>
    5ccd:	48 8b 44 24 50       	mov    0x50(%rsp),%rax
    5cd2:	48 89 84 24 e0 00 00 	mov    %rax,0xe0(%rsp)
    5cd9:	00 
    5cda:	48 8b bc 24 a8 00 00 	mov    0xa8(%rsp),%rdi
    5ce1:	00 
    5ce2:	48 8b b4 24 e0 00 00 	mov    0xe0(%rsp),%rsi
    5ce9:	00 
    5cea:	e8 71 28 00 00       	call   8560 <_ZN4core5alloc6Layout15from_size_align17hc27fe950dd43fdd9E>
    5cef:	48 89 54 24 40       	mov    %rdx,0x40(%rsp)
    5cf4:	48 89 44 24 38       	mov    %rax,0x38(%rsp)
    5cf9:	eb 00                	jmp    5cfb <_ZN5alloc7raw_vec19RawVec$LT$T$C$A$GT$11allocate_in17h5c697ac51789c6a8E+0x11b>
    5cfb:	48 8b 7c 24 38       	mov    0x38(%rsp),%rdi
    5d00:	48 8b 74 24 40       	mov    0x40(%rsp),%rsi
    5d05:	e8 16 23 00 00       	call   8020 <_ZN4core6result19Result$LT$T$C$E$GT$6unwrap17hd21e12a2bf12da51E>
    5d0a:	48 89 54 24 30       	mov    %rdx,0x30(%rsp)
    5d0f:	48 89 44 24 28       	mov    %rax,0x28(%rsp)
    5d14:	eb 00                	jmp    5d16 <_ZN5alloc7raw_vec19RawVec$LT$T$C$A$GT$11allocate_in17h5c697ac51789c6a8E+0x136>
    5d16:	48 8b 44 24 28       	mov    0x28(%rsp),%rax
    5d1b:	48 89 84 24 e8 00 00 	mov    %rax,0xe8(%rsp)
    5d22:	00 
    5d23:	48 8b 4c 24 30       	mov    0x30(%rsp),%rcx
    5d28:	48 89 8c 24 f0 00 00 	mov    %rcx,0xf0(%rsp)
    5d2f:	00 
    5d30:	f6 84 24 87 00 00 00 	testb  $0x1,0x87(%rsp)
    5d37:	01 
    5d38:	75 24                	jne    5d5e <_ZN5alloc7raw_vec19RawVec$LT$T$C$A$GT$11allocate_in17h5c697ac51789c6a8E+0x17e>
    5d3a:	48 8b b4 24 e8 00 00 	mov    0xe8(%rsp),%rsi
    5d41:	00 
    5d42:	48 8b 94 24 f0 00 00 	mov    0xf0(%rsp),%rdx
    5d49:	00 
    5d4a:	48 8d bc 24 88 00 00 	lea    0x88(%rsp),%rdi
    5d51:	00 
    5d52:	e8 69 fb ff ff       	call   58c0 <_ZN59_$LT$alloc..alloc..Global$u20$as$u20$core..alloc..Alloc$GT$5alloc17ha6b4b6aa7e6d2807E>
    5d57:	48 89 44 24 20       	mov    %rax,0x20(%rsp)
    5d5c:	eb 33                	jmp    5d91 <_ZN5alloc7raw_vec19RawVec$LT$T$C$A$GT$11allocate_in17h5c697ac51789c6a8E+0x1b1>
    5d5e:	48 8b b4 24 e8 00 00 	mov    0xe8(%rsp),%rsi
    5d65:	00 
    5d66:	48 8b 94 24 f0 00 00 	mov    0xf0(%rsp),%rdx
    5d6d:	00 
    5d6e:	48 8d bc 24 88 00 00 	lea    0x88(%rsp),%rdi
    5d75:	00 
    5d76:	e8 f5 fa ff ff       	call   5870 <_ZN59_$LT$alloc..alloc..Global$u20$as$u20$core..alloc..Alloc$GT$12alloc_zeroed17h575a4389e2391a64E>
    5d7b:	48 89 44 24 18       	mov    %rax,0x18(%rsp)
    5d80:	eb 00                	jmp    5d82 <_ZN5alloc7raw_vec19RawVec$LT$T$C$A$GT$11allocate_in17h5c697ac51789c6a8E+0x1a2>
    5d82:	48 8b 44 24 18       	mov    0x18(%rsp),%rax
    5d87:	48 89 84 24 f8 00 00 	mov    %rax,0xf8(%rsp)
    5d8e:	00 
    5d8f:	eb 0d                	jmp    5d9e <_ZN5alloc7raw_vec19RawVec$LT$T$C$A$GT$11allocate_in17h5c697ac51789c6a8E+0x1be>
    5d91:	48 8b 44 24 20       	mov    0x20(%rsp),%rax
    5d96:	48 89 84 24 f8 00 00 	mov    %rax,0xf8(%rsp)
    5d9d:	00 
    5d9e:	48 8b 84 24 f8 00 00 	mov    0xf8(%rsp),%rax
    5da5:	00 
    5da6:	48 85 c0             	test   %rax,%rax
    5da9:	0f 94 c1             	sete   %cl
    5dac:	0f b6 d1             	movzbl %cl,%edx
    5daf:	89 d0                	mov    %edx,%eax
    5db1:	75 22                	jne    5dd5 <_ZN5alloc7raw_vec19RawVec$LT$T$C$A$GT$11allocate_in17h5c697ac51789c6a8E+0x1f5>
    5db3:	eb 00                	jmp    5db5 <_ZN5alloc7raw_vec19RawVec$LT$T$C$A$GT$11allocate_in17h5c697ac51789c6a8E+0x1d5>
    5db5:	48 8b bc 24 e8 00 00 	mov    0xe8(%rsp),%rdi
    5dbc:	00 
    5dbd:	48 8b b4 24 f0 00 00 	mov    0xf0(%rsp),%rsi
    5dc4:	00 
    5dc5:	48 8d 05 84 39 02 00 	lea    0x23984(%rip),%rax        # 29750 <_ZN5alloc5alloc18handle_alloc_error17hf59328f931d332cdE>
    5dcc:	ff d0                	call   *%rax
    5dce:	e9 9c 00 00 00       	jmp    5e6f <_ZN5alloc7raw_vec19RawVec$LT$T$C$A$GT$11allocate_in17h5c697ac51789c6a8E+0x28f>
    5dd3:	0f 0b                	ud2
    5dd5:	48 8b 84 24 f8 00 00 	mov    0xf8(%rsp),%rax
    5ddc:	00 
    5ddd:	48 89 84 24 00 01 00 	mov    %rax,0x100(%rsp)
    5de4:	00 
    5de5:	48 8b bc 24 00 01 00 	mov    0x100(%rsp),%rdi
    5dec:	00 
    5ded:	e8 3e 4e 00 00       	call   ac30 <_ZN4core3ptr8non_null16NonNull$LT$T$GT$4cast17h6874a9b9c28fc561E>
    5df2:	48 89 44 24 10       	mov    %rax,0x10(%rsp)
    5df7:	eb 00                	jmp    5df9 <_ZN5alloc7raw_vec19RawVec$LT$T$C$A$GT$11allocate_in17h5c697ac51789c6a8E+0x219>
    5df9:	48 8b 44 24 10       	mov    0x10(%rsp),%rax
    5dfe:	48 89 84 24 d8 00 00 	mov    %rax,0xd8(%rsp)
    5e05:	00 
    5e06:	48 8b bc 24 d8 00 00 	mov    0xd8(%rsp),%rdi
    5e0d:	00 
    5e0e:	e8 ed 4f 00 00       	call   ae00 <_ZN50_$LT$T$u20$as$u20$core..convert..Into$LT$U$GT$$GT$4into17h0a87468e1cb1a293E>
    5e13:	48 89 44 24 08       	mov    %rax,0x8(%rsp)
    5e18:	eb 00                	jmp    5e1a <_ZN5alloc7raw_vec19RawVec$LT$T$C$A$GT$11allocate_in17h5c697ac51789c6a8E+0x23a>
    5e1a:	48 8b 44 24 78       	mov    0x78(%rsp),%rax
    5e1f:	48 8b 4c 24 08       	mov    0x8(%rsp),%rcx
    5e24:	48 89 8c 24 90 00 00 	mov    %rcx,0x90(%rsp)
    5e2b:	00 
    5e2c:	48 89 84 24 98 00 00 	mov    %rax,0x98(%rsp)
    5e33:	00 
    5e34:	48 8b 84 24 90 00 00 	mov    0x90(%rsp),%rax
    5e3b:	00 
    5e3c:	48 8b 94 24 98 00 00 	mov    0x98(%rsp),%rdx
    5e43:	00 
    5e44:	48 81 c4 28 01 00 00 	add    $0x128,%rsp
    5e4b:	c3                   	ret
    5e4c:	48 8b 44 24 48       	mov    0x48(%rsp),%rax
    5e51:	48 89 84 24 d8 00 00 	mov    %rax,0xd8(%rsp)
    5e58:	00 
    5e59:	eb ab                	jmp    5e06 <_ZN5alloc7raw_vec19RawVec$LT$T$C$A$GT$11allocate_in17h5c697ac51789c6a8E+0x226>
    5e5b:	48 89 84 24 08 01 00 	mov    %rax,0x108(%rsp)
    5e62:	00 
    5e63:	89 94 24 10 01 00 00 	mov    %edx,0x110(%rsp)
    5e6a:	e9 de fd ff ff       	jmp    5c4d <_ZN5alloc7raw_vec19RawVec$LT$T$C$A$GT$11allocate_in17h5c697ac51789c6a8E+0x6d>
    5e6f:	0f 0b                	ud2
    5e71:	66 2e 0f 1f 84 00 00 	cs nopw 0x0(%rax,%rax,1)
    5e78:	00 00 00 
    5e7b:	0f 1f 44 00 00       	nopl   0x0(%rax,%rax,1)

0000000000005e80 <_ZN5alloc7raw_vec19RawVec$LT$T$C$A$GT$11allocate_in17heab7695257ce7967E>:
    5e80:	48 81 ec 28 01 00 00 	sub    $0x128,%rsp
    5e87:	48 89 7c 24 78       	mov    %rdi,0x78(%rsp)
    5e8c:	40 80 e6 01          	and    $0x1,%sil
    5e90:	40 88 b4 24 87 00 00 	mov    %sil,0x87(%rsp)
    5e97:	00 
    5e98:	48 c7 84 24 18 01 00 	movq   $0x18,0x118(%rsp)
    5e9f:	00 18 00 00 00 
    5ea4:	48 8b 84 24 18 01 00 	mov    0x118(%rsp),%rax
    5eab:	00 
    5eac:	48 89 44 24 70       	mov    %rax,0x70(%rsp)
    5eb1:	eb 0f                	jmp    5ec2 <_ZN5alloc7raw_vec19RawVec$LT$T$C$A$GT$11allocate_in17heab7695257ce7967E+0x42>
    5eb3:	48 8b bc 24 08 01 00 	mov    0x108(%rsp),%rdi
    5eba:	00 
    5ebb:	e8 30 f2 ff ff       	call   50f0 <_Unwind_Resume@plt>
    5ec0:	0f 0b                	ud2
    5ec2:	48 8b 44 24 70       	mov    0x70(%rsp),%rax
    5ec7:	48 89 84 24 a0 00 00 	mov    %rax,0xa0(%rsp)
    5ece:	00 
    5ecf:	48 8b 7c 24 78       	mov    0x78(%rsp),%rdi
    5ed4:	48 8b b4 24 a0 00 00 	mov    0xa0(%rsp),%rsi
    5edb:	00 
    5edc:	e8 df 59 00 00       	call   b8c0 <_ZN4core3num23_$LT$impl$u20$usize$GT$11checked_mul17hf1166bc1e8d0e348E>
    5ee1:	48 89 54 24 68       	mov    %rdx,0x68(%rsp)
    5ee6:	48 89 44 24 60       	mov    %rax,0x60(%rsp)
    5eeb:	eb 02                	jmp    5eef <_ZN5alloc7raw_vec19RawVec$LT$T$C$A$GT$11allocate_in17heab7695257ce7967E+0x6f>
    5eed:	eb c4                	jmp    5eb3 <_ZN5alloc7raw_vec19RawVec$LT$T$C$A$GT$11allocate_in17heab7695257ce7967E+0x33>
    5eef:	48 8b 7c 24 60       	mov    0x60(%rsp),%rdi
    5ef4:	48 8b 74 24 68       	mov    0x68(%rsp),%rsi
    5ef9:	e8 c2 30 00 00       	call   8fc0 <_ZN4core6option15Option$LT$T$GT$14unwrap_or_else17h5a27ec82016b2b4aE>
    5efe:	48 89 44 24 58       	mov    %rax,0x58(%rsp)
    5f03:	eb 00                	jmp    5f05 <_ZN5alloc7raw_vec19RawVec$LT$T$C$A$GT$11allocate_in17heab7695257ce7967E+0x85>
    5f05:	48 8b 44 24 58       	mov    0x58(%rsp),%rax
    5f0a:	48 89 84 24 a8 00 00 	mov    %rax,0xa8(%rsp)
    5f11:	00 
    5f12:	48 8b b4 24 a8 00 00 	mov    0xa8(%rsp),%rsi
    5f19:	00 
    5f1a:	48 8d bc 24 b8 00 00 	lea    0xb8(%rsp),%rdi
    5f21:	00 
    5f22:	e8 19 f3 ff ff       	call   5240 <_ZN5alloc7raw_vec11alloc_guard17h1bfa7b3fd4462045E>
    5f27:	eb 00                	jmp    5f29 <_ZN5alloc7raw_vec19RawVec$LT$T$C$A$GT$11allocate_in17heab7695257ce7967E+0xa9>
    5f29:	48 8d bc 24 b8 00 00 	lea    0xb8(%rsp),%rdi
    5f30:	00 
    5f31:	e8 ba 19 00 00       	call   78f0 <_ZN4core6result19Result$LT$T$C$E$GT$14unwrap_or_else17hcc1f8fac6a8294b4E>
    5f36:	eb 00                	jmp    5f38 <_ZN5alloc7raw_vec19RawVec$LT$T$C$A$GT$11allocate_in17heab7695257ce7967E+0xb8>
    5f38:	48 83 bc 24 a8 00 00 	cmpq   $0x0,0xa8(%rsp)
    5f3f:	00 00 
    5f41:	74 1b                	je     5f5e <_ZN5alloc7raw_vec19RawVec$LT$T$C$A$GT$11allocate_in17heab7695257ce7967E+0xde>
    5f43:	48 c7 84 24 20 01 00 	movq   $0x8,0x120(%rsp)
    5f4a:	00 08 00 00 00 
    5f4f:	48 8b 84 24 20 01 00 	mov    0x120(%rsp),%rax
    5f56:	00 
    5f57:	48 89 44 24 50       	mov    %rax,0x50(%rsp)
    5f5c:	eb 0f                	jmp    5f6d <_ZN5alloc7raw_vec19RawVec$LT$T$C$A$GT$11allocate_in17heab7695257ce7967E+0xed>
    5f5e:	e8 ed 4d 00 00       	call   ad50 <_ZN4core3ptr8non_null16NonNull$LT$T$GT$8dangling17h29c3cc7218d37635E>
    5f63:	48 89 44 24 48       	mov    %rax,0x48(%rsp)
    5f68:	e9 7f 01 00 00       	jmp    60ec <_ZN5alloc7raw_vec19RawVec$LT$T$C$A$GT$11allocate_in17heab7695257ce7967E+0x26c>
    5f6d:	48 8b 44 24 50       	mov    0x50(%rsp),%rax
    5f72:	48 89 84 24 e0 00 00 	mov    %rax,0xe0(%rsp)
    5f79:	00 
    5f7a:	48 8b bc 24 a8 00 00 	mov    0xa8(%rsp),%rdi
    5f81:	00 
    5f82:	48 8b b4 24 e0 00 00 	mov    0xe0(%rsp),%rsi
    5f89:	00 
    5f8a:	e8 d1 25 00 00       	call   8560 <_ZN4core5alloc6Layout15from_size_align17hc27fe950dd43fdd9E>
    5f8f:	48 89 54 24 40       	mov    %rdx,0x40(%rsp)
    5f94:	48 89 44 24 38       	mov    %rax,0x38(%rsp)
    5f99:	eb 00                	jmp    5f9b <_ZN5alloc7raw_vec19RawVec$LT$T$C$A$GT$11allocate_in17heab7695257ce7967E+0x11b>
    5f9b:	48 8b 7c 24 38       	mov    0x38(%rsp),%rdi
    5fa0:	48 8b 74 24 40       	mov    0x40(%rsp),%rsi
    5fa5:	e8 76 20 00 00       	call   8020 <_ZN4core6result19Result$LT$T$C$E$GT$6unwrap17hd21e12a2bf12da51E>
    5faa:	48 89 54 24 30       	mov    %rdx,0x30(%rsp)
    5faf:	48 89 44 24 28       	mov    %rax,0x28(%rsp)
    5fb4:	eb 00                	jmp    5fb6 <_ZN5alloc7raw_vec19RawVec$LT$T$C$A$GT$11allocate_in17heab7695257ce7967E+0x136>
    5fb6:	48 8b 44 24 28       	mov    0x28(%rsp),%rax
    5fbb:	48 89 84 24 e8 00 00 	mov    %rax,0xe8(%rsp)
    5fc2:	00 
    5fc3:	48 8b 4c 24 30       	mov    0x30(%rsp),%rcx
    5fc8:	48 89 8c 24 f0 00 00 	mov    %rcx,0xf0(%rsp)
    5fcf:	00 
    5fd0:	f6 84 24 87 00 00 00 	testb  $0x1,0x87(%rsp)
    5fd7:	01 
    5fd8:	75 24                	jne    5ffe <_ZN5alloc7raw_vec19RawVec$LT$T$C$A$GT$11allocate_in17heab7695257ce7967E+0x17e>
    5fda:	48 8b b4 24 e8 00 00 	mov    0xe8(%rsp),%rsi
    5fe1:	00 
    5fe2:	48 8b 94 24 f0 00 00 	mov    0xf0(%rsp),%rdx
    5fe9:	00 
    5fea:	48 8d bc 24 88 00 00 	lea    0x88(%rsp),%rdi
    5ff1:	00 
    5ff2:	e8 c9 f8 ff ff       	call   58c0 <_ZN59_$LT$alloc..alloc..Global$u20$as$u20$core..alloc..Alloc$GT$5alloc17ha6b4b6aa7e6d2807E>
    5ff7:	48 89 44 24 20       	mov    %rax,0x20(%rsp)
    5ffc:	eb 33                	jmp    6031 <_ZN5alloc7raw_vec19RawVec$LT$T$C$A$GT$11allocate_in17heab7695257ce7967E+0x1b1>
    5ffe:	48 8b b4 24 e8 00 00 	mov    0xe8(%rsp),%rsi
    6005:	00 
    6006:	48 8b 94 24 f0 00 00 	mov    0xf0(%rsp),%rdx
    600d:	00 
    600e:	48 8d bc 24 88 00 00 	lea    0x88(%rsp),%rdi
    6015:	00 
    6016:	e8 55 f8 ff ff       	call   5870 <_ZN59_$LT$alloc..alloc..Global$u20$as$u20$core..alloc..Alloc$GT$12alloc_zeroed17h575a4389e2391a64E>
    601b:	48 89 44 24 18       	mov    %rax,0x18(%rsp)
    6020:	eb 00                	jmp    6022 <_ZN5alloc7raw_vec19RawVec$LT$T$C$A$GT$11allocate_in17heab7695257ce7967E+0x1a2>
    6022:	48 8b 44 24 18       	mov    0x18(%rsp),%rax
    6027:	48 89 84 24 f8 00 00 	mov    %rax,0xf8(%rsp)
    602e:	00 
    602f:	eb 0d                	jmp    603e <_ZN5alloc7raw_vec19RawVec$LT$T$C$A$GT$11allocate_in17heab7695257ce7967E+0x1be>
    6031:	48 8b 44 24 20       	mov    0x20(%rsp),%rax
    6036:	48 89 84 24 f8 00 00 	mov    %rax,0xf8(%rsp)
    603d:	00 
    603e:	48 8b 84 24 f8 00 00 	mov    0xf8(%rsp),%rax
    6045:	00 
    6046:	48 85 c0             	test   %rax,%rax
    6049:	0f 94 c1             	sete   %cl
    604c:	0f b6 d1             	movzbl %cl,%edx
    604f:	89 d0                	mov    %edx,%eax
    6051:	75 22                	jne    6075 <_ZN5alloc7raw_vec19RawVec$LT$T$C$A$GT$11allocate_in17heab7695257ce7967E+0x1f5>
    6053:	eb 00                	jmp    6055 <_ZN5alloc7raw_vec19RawVec$LT$T$C$A$GT$11allocate_in17heab7695257ce7967E+0x1d5>
    6055:	48 8b bc 24 e8 00 00 	mov    0xe8(%rsp),%rdi
    605c:	00 
    605d:	48 8b b4 24 f0 00 00 	mov    0xf0(%rsp),%rsi
    6064:	00 
    6065:	48 8d 05 e4 36 02 00 	lea    0x236e4(%rip),%rax        # 29750 <_ZN5alloc5alloc18handle_alloc_error17hf59328f931d332cdE>
    606c:	ff d0                	call   *%rax
    606e:	e9 9c 00 00 00       	jmp    610f <_ZN5alloc7raw_vec19RawVec$LT$T$C$A$GT$11allocate_in17heab7695257ce7967E+0x28f>
    6073:	0f 0b                	ud2
    6075:	48 8b 84 24 f8 00 00 	mov    0xf8(%rsp),%rax
    607c:	00 
    607d:	48 89 84 24 00 01 00 	mov    %rax,0x100(%rsp)
    6084:	00 
    6085:	48 8b bc 24 00 01 00 	mov    0x100(%rsp),%rdi
    608c:	00 
    608d:	e8 ce 4b 00 00       	call   ac60 <_ZN4core3ptr8non_null16NonNull$LT$T$GT$4cast17hada00e4ff6e027d0E>
    6092:	48 89 44 24 10       	mov    %rax,0x10(%rsp)
    6097:	eb 00                	jmp    6099 <_ZN5alloc7raw_vec19RawVec$LT$T$C$A$GT$11allocate_in17heab7695257ce7967E+0x219>
    6099:	48 8b 44 24 10       	mov    0x10(%rsp),%rax
    609e:	48 89 84 24 d8 00 00 	mov    %rax,0xd8(%rsp)
    60a5:	00 
    60a6:	48 8b bc 24 d8 00 00 	mov    0xd8(%rsp),%rdi
    60ad:	00 
    60ae:	e8 1d 4d 00 00       	call   add0 <_ZN50_$LT$T$u20$as$u20$core..convert..Into$LT$U$GT$$GT$4into17h0648c5a653b56d23E>
    60b3:	48 89 44 24 08       	mov    %rax,0x8(%rsp)
    60b8:	eb 00                	jmp    60ba <_ZN5alloc7raw_vec19RawVec$LT$T$C$A$GT$11allocate_in17heab7695257ce7967E+0x23a>
    60ba:	48 8b 44 24 78       	mov    0x78(%rsp),%rax
    60bf:	48 8b 4c 24 08       	mov    0x8(%rsp),%rcx
    60c4:	48 89 8c 24 90 00 00 	mov    %rcx,0x90(%rsp)
    60cb:	00 
    60cc:	48 89 84 24 98 00 00 	mov    %rax,0x98(%rsp)
    60d3:	00 
    60d4:	48 8b 84 24 90 00 00 	mov    0x90(%rsp),%rax
    60db:	00 
    60dc:	48 8b 94 24 98 00 00 	mov    0x98(%rsp),%rdx
    60e3:	00 
    60e4:	48 81 c4 28 01 00 00 	add    $0x128,%rsp
    60eb:	c3                   	ret
    60ec:	48 8b 44 24 48       	mov    0x48(%rsp),%rax
    60f1:	48 89 84 24 d8 00 00 	mov    %rax,0xd8(%rsp)
    60f8:	00 
    60f9:	eb ab                	jmp    60a6 <_ZN5alloc7raw_vec19RawVec$LT$T$C$A$GT$11allocate_in17heab7695257ce7967E+0x226>
    60fb:	48 89 84 24 08 01 00 	mov    %rax,0x108(%rsp)
    6102:	00 
    6103:	89 94 24 10 01 00 00 	mov    %edx,0x110(%rsp)
    610a:	e9 de fd ff ff       	jmp    5eed <_ZN5alloc7raw_vec19RawVec$LT$T$C$A$GT$11allocate_in17heab7695257ce7967E+0x6d>
    610f:	0f 0b                	ud2
    6111:	66 2e 0f 1f 84 00 00 	cs nopw 0x0(%rax,%rax,1)
    6118:	00 00 00 
    611b:	0f 1f 44 00 00       	nopl   0x0(%rax,%rax,1)

0000000000006120 <_ZN5alloc7raw_vec19RawVec$LT$T$C$A$GT$11allocate_in28_$u7b$$u7b$closure$u7d$$u7d$17h2189accf9963a483E>:
    6120:	48 83 ec 18          	sub    $0x18,%rsp
    6124:	48 89 7c 24 08       	mov    %rdi,0x8(%rsp)
    6129:	48 89 74 24 10       	mov    %rsi,0x10(%rsp)
    612e:	48 8d 05 2b 36 02 00 	lea    0x2362b(%rip),%rax        # 29760 <_ZN5alloc7raw_vec17capacity_overflow17hb992b30ca3913146E>
    6135:	ff d0                	call   *%rax
    6137:	0f 0b                	ud2
    6139:	0f 1f 80 00 00 00 00 	nopl   0x0(%rax)

0000000000006140 <_ZN5alloc7raw_vec19RawVec$LT$T$C$A$GT$11allocate_in28_$u7b$$u7b$closure$u7d$$u7d$17h3c5de0500a7bd499E>:
    6140:	50                   	push   %rax
    6141:	48 8d 05 18 36 02 00 	lea    0x23618(%rip),%rax        # 29760 <_ZN5alloc7raw_vec17capacity_overflow17hb992b30ca3913146E>
    6148:	ff d0                	call   *%rax
    614a:	0f 0b                	ud2
    614c:	0f 1f 40 00          	nopl   0x0(%rax)

0000000000006150 <_ZN5alloc7raw_vec19RawVec$LT$T$C$A$GT$11allocate_in28_$u7b$$u7b$closure$u7d$$u7d$17h5584c1b039dee3d1E>:
    6150:	48 83 ec 18          	sub    $0x18,%rsp
    6154:	48 89 7c 24 08       	mov    %rdi,0x8(%rsp)
    6159:	48 89 74 24 10       	mov    %rsi,0x10(%rsp)
    615e:	48 8d 05 fb 35 02 00 	lea    0x235fb(%rip),%rax        # 29760 <_ZN5alloc7raw_vec17capacity_overflow17hb992b30ca3913146E>
    6165:	ff d0                	call   *%rax
    6167:	0f 0b                	ud2
    6169:	0f 1f 80 00 00 00 00 	nopl   0x0(%rax)

0000000000006170 <_ZN5alloc7raw_vec19RawVec$LT$T$C$A$GT$11allocate_in28_$u7b$$u7b$closure$u7d$$u7d$17hb99e1bfa850bd50dE>:
    6170:	50                   	push   %rax
    6171:	48 8d 05 e8 35 02 00 	lea    0x235e8(%rip),%rax        # 29760 <_ZN5alloc7raw_vec17capacity_overflow17hb992b30ca3913146E>
    6178:	ff d0                	call   *%rax
    617a:	0f 0b                	ud2
    617c:	0f 1f 40 00          	nopl   0x0(%rax)

0000000000006180 <_ZN5alloc7raw_vec19RawVec$LT$T$C$A$GT$14current_layout17h0f2b340e26ba17a0E>:
    6180:	48 83 ec 58          	sub    $0x58,%rsp
    6184:	48 89 7c 24 20       	mov    %rdi,0x20(%rsp)
    6189:	48 8b 44 24 20       	mov    0x20(%rsp),%rax
    618e:	48 83 78 08 00       	cmpq   $0x0,0x8(%rax)
    6193:	74 15                	je     61aa <_ZN5alloc7raw_vec19RawVec$LT$T$C$A$GT$14current_layout17h0f2b340e26ba17a0E+0x2a>
    6195:	48 c7 44 24 48 08 00 	movq   $0x8,0x48(%rsp)
    619c:	00 00 
    619e:	48 8b 44 24 48       	mov    0x48(%rsp),%rax
    61a3:	48 89 44 24 38       	mov    %rax,0x38(%rsp)
    61a8:	eb 0b                	jmp    61b5 <_ZN5alloc7raw_vec19RawVec$LT$T$C$A$GT$14current_layout17h0f2b340e26ba17a0E+0x35>
    61aa:	48 c7 44 24 30 00 00 	movq   $0x0,0x30(%rsp)
    61b1:	00 00 
    61b3:	eb 54                	jmp    6209 <_ZN5alloc7raw_vec19RawVec$LT$T$C$A$GT$14current_layout17h0f2b340e26ba17a0E+0x89>
    61b5:	48 c7 44 24 50 18 00 	movq   $0x18,0x50(%rsp)
    61bc:	00 00 
    61be:	48 8b 44 24 50       	mov    0x50(%rsp),%rax
    61c3:	48 89 44 24 18       	mov    %rax,0x18(%rsp)
    61c8:	48 8b 44 24 20       	mov    0x20(%rsp),%rax
    61cd:	48 8b 4c 24 18       	mov    0x18(%rsp),%rcx
    61d2:	48 0f af 48 08       	imul   0x8(%rax),%rcx
    61d7:	48 89 4c 24 40       	mov    %rcx,0x40(%rsp)
    61dc:	48 8b 7c 24 40       	mov    0x40(%rsp),%rdi
    61e1:	48 8b 74 24 38       	mov    0x38(%rsp),%rsi
    61e6:	e8 a5 24 00 00       	call   8690 <_ZN4core5alloc6Layout25from_size_align_unchecked17hdfc424f50b0f1fbfE>
    61eb:	48 89 44 24 10       	mov    %rax,0x10(%rsp)
    61f0:	48 89 54 24 08       	mov    %rdx,0x8(%rsp)
    61f5:	48 8b 44 24 10       	mov    0x10(%rsp),%rax
    61fa:	48 89 44 24 28       	mov    %rax,0x28(%rsp)
    61ff:	48 8b 4c 24 08       	mov    0x8(%rsp),%rcx
    6204:	48 89 4c 24 30       	mov    %rcx,0x30(%rsp)
    6209:	48 8b 44 24 28       	mov    0x28(%rsp),%rax
    620e:	48 8b 54 24 30       	mov    0x30(%rsp),%rdx
    6213:	48 83 c4 58          	add    $0x58,%rsp
    6217:	c3                   	ret
    6218:	0f 1f 84 00 00 00 00 	nopl   0x0(%rax,%rax,1)
    621f:	00 

0000000000006220 <_ZN5alloc7raw_vec19RawVec$LT$T$C$A$GT$14current_layout17ha0fe409ec19508cdE>:
    6220:	48 83 ec 58          	sub    $0x58,%rsp
    6224:	48 89 7c 24 20       	mov    %rdi,0x20(%rsp)
    6229:	48 8b 44 24 20       	mov    0x20(%rsp),%rax
    622e:	48 83 78 08 00       	cmpq   $0x0,0x8(%rax)
    6233:	74 15                	je     624a <_ZN5alloc7raw_vec19RawVec$LT$T$C$A$GT$14current_layout17ha0fe409ec19508cdE+0x2a>
    6235:	48 c7 44 24 48 08 00 	movq   $0x8,0x48(%rsp)
    623c:	00 00 
    623e:	48 8b 44 24 48       	mov    0x48(%rsp),%rax
    6243:	48 89 44 24 38       	mov    %rax,0x38(%rsp)
    6248:	eb 0b                	jmp    6255 <_ZN5alloc7raw_vec19RawVec$LT$T$C$A$GT$14current_layout17ha0fe409ec19508cdE+0x35>
    624a:	48 c7 44 24 30 00 00 	movq   $0x0,0x30(%rsp)
    6251:	00 00 
    6253:	eb 54                	jmp    62a9 <_ZN5alloc7raw_vec19RawVec$LT$T$C$A$GT$14current_layout17ha0fe409ec19508cdE+0x89>
    6255:	48 c7 44 24 50 18 00 	movq   $0x18,0x50(%rsp)
    625c:	00 00 
    625e:	48 8b 44 24 50       	mov    0x50(%rsp),%rax
    6263:	48 89 44 24 18       	mov    %rax,0x18(%rsp)
    6268:	48 8b 44 24 20       	mov    0x20(%rsp),%rax
    626d:	48 8b 4c 24 18       	mov    0x18(%rsp),%rcx
    6272:	48 0f af 48 08       	imul   0x8(%rax),%rcx
    6277:	48 89 4c 24 40       	mov    %rcx,0x40(%rsp)
    627c:	48 8b 7c 24 40       	mov    0x40(%rsp),%rdi
    6281:	48 8b 74 24 38       	mov    0x38(%rsp),%rsi
    6286:	e8 05 24 00 00       	call   8690 <_ZN4core5alloc6Layout25from_size_align_unchecked17hdfc424f50b0f1fbfE>
    628b:	48 89 44 24 10       	mov    %rax,0x10(%rsp)
    6290:	48 89 54 24 08       	mov    %rdx,0x8(%rsp)
    6295:	48 8b 44 24 10       	mov    0x10(%rsp),%rax
    629a:	48 89 44 24 28       	mov    %rax,0x28(%rsp)
    629f:	48 8b 4c 24 08       	mov    0x8(%rsp),%rcx
    62a4:	48 89 4c 24 30       	mov    %rcx,0x30(%rsp)
    62a9:	48 8b 44 24 28       	mov    0x28(%rsp),%rax
    62ae:	48 8b 54 24 30       	mov    0x30(%rsp),%rdx
    62b3:	48 83 c4 58          	add    $0x58,%rsp
    62b7:	c3                   	ret
    62b8:	0f 1f 84 00 00 00 00 	nopl   0x0(%rax,%rax,1)
    62bf:	00 

00000000000062c0 <_ZN5alloc7raw_vec19RawVec$LT$T$C$A$GT$14current_layout17hc47dcd3c4f665ac9E>:
    62c0:	48 83 ec 58          	sub    $0x58,%rsp
    62c4:	48 89 7c 24 20       	mov    %rdi,0x20(%rsp)
    62c9:	48 8b 44 24 20       	mov    0x20(%rsp),%rax
    62ce:	48 83 78 08 00       	cmpq   $0x0,0x8(%rax)
    62d3:	74 15                	je     62ea <_ZN5alloc7raw_vec19RawVec$LT$T$C$A$GT$14current_layout17hc47dcd3c4f665ac9E+0x2a>
    62d5:	48 c7 44 24 48 01 00 	movq   $0x1,0x48(%rsp)
    62dc:	00 00 
    62de:	48 8b 44 24 48       	mov    0x48(%rsp),%rax
    62e3:	48 89 44 24 38       	mov    %rax,0x38(%rsp)
    62e8:	eb 0b                	jmp    62f5 <_ZN5alloc7raw_vec19RawVec$LT$T$C$A$GT$14current_layout17hc47dcd3c4f665ac9E+0x35>
    62ea:	48 c7 44 24 30 00 00 	movq   $0x0,0x30(%rsp)
    62f1:	00 00 
    62f3:	eb 54                	jmp    6349 <_ZN5alloc7raw_vec19RawVec$LT$T$C$A$GT$14current_layout17hc47dcd3c4f665ac9E+0x89>
    62f5:	48 c7 44 24 50 01 00 	movq   $0x1,0x50(%rsp)
    62fc:	00 00 
    62fe:	48 8b 44 24 50       	mov    0x50(%rsp),%rax
    6303:	48 89 44 24 18       	mov    %rax,0x18(%rsp)
    6308:	48 8b 44 24 20       	mov    0x20(%rsp),%rax
    630d:	48 8b 4c 24 18       	mov    0x18(%rsp),%rcx
    6312:	48 0f af 48 08       	imul   0x8(%rax),%rcx
    6317:	48 89 4c 24 40       	mov    %rcx,0x40(%rsp)
    631c:	48 8b 7c 24 40       	mov    0x40(%rsp),%rdi
    6321:	48 8b 74 24 38       	mov    0x38(%rsp),%rsi
    6326:	e8 65 23 00 00       	call   8690 <_ZN4core5alloc6Layout25from_size_align_unchecked17hdfc424f50b0f1fbfE>
    632b:	48 89 44 24 10       	mov    %rax,0x10(%rsp)
    6330:	48 89 54 24 08       	mov    %rdx,0x8(%rsp)
    6335:	48 8b 44 24 10       	mov    0x10(%rsp),%rax
    633a:	48 89 44 24 28       	mov    %rax,0x28(%rsp)
    633f:	48 8b 4c 24 08       	mov    0x8(%rsp),%rcx
    6344:	48 89 4c 24 30       	mov    %rcx,0x30(%rsp)
    6349:	48 8b 44 24 28       	mov    0x28(%rsp),%rax
    634e:	48 8b 54 24 30       	mov    0x30(%rsp),%rdx
    6353:	48 83 c4 58          	add    $0x58,%rsp
    6357:	c3                   	ret
    6358:	0f 1f 84 00 00 00 00 	nopl   0x0(%rax,%rax,1)
    635f:	00 

0000000000006360 <_ZN5alloc7raw_vec19RawVec$LT$T$C$A$GT$14dealloc_buffer17h0f1053bc1141f356E>:
    6360:	48 83 ec 58          	sub    $0x58,%rsp
    6364:	48 89 7c 24 20       	mov    %rdi,0x20(%rsp)
    6369:	48 c7 44 24 50 18 00 	movq   $0x18,0x50(%rsp)
    6370:	00 00 
    6372:	48 8b 44 24 50       	mov    0x50(%rsp),%rax
    6377:	48 89 44 24 28       	mov    %rax,0x28(%rsp)
    637c:	48 83 7c 24 28 00    	cmpq   $0x0,0x28(%rsp)
    6382:	0f 84 89 00 00 00    	je     6411 <_ZN5alloc7raw_vec19RawVec$LT$T$C$A$GT$14dealloc_buffer17h0f1053bc1141f356E+0xb1>
    6388:	48 8b 7c 24 20       	mov    0x20(%rsp),%rdi
    638d:	e8 ee fd ff ff       	call   6180 <_ZN5alloc7raw_vec19RawVec$LT$T$C$A$GT$14current_layout17h0f2b340e26ba17a0E>
    6392:	48 89 54 24 38       	mov    %rdx,0x38(%rsp)
    6397:	48 89 44 24 30       	mov    %rax,0x30(%rsp)
    639c:	31 c0                	xor    %eax,%eax
    639e:	89 c1                	mov    %eax,%ecx
    63a0:	48 83 7c 24 38 00    	cmpq   $0x0,0x38(%rsp)
    63a6:	ba 01 00 00 00       	mov    $0x1,%edx
    63ab:	48 0f 46 d1          	cmovbe %rcx,%rdx
    63af:	48 83 fa 01          	cmp    $0x1,%rdx
    63b3:	75 5a                	jne    640f <_ZN5alloc7raw_vec19RawVec$LT$T$C$A$GT$14dealloc_buffer17h0f1053bc1141f356E+0xaf>
    63b5:	48 8b 44 24 30       	mov    0x30(%rsp),%rax
    63ba:	48 8b 4c 24 38       	mov    0x38(%rsp),%rcx
    63bf:	48 89 44 24 40       	mov    %rax,0x40(%rsp)
    63c4:	48 89 4c 24 48       	mov    %rcx,0x48(%rsp)
    63c9:	48 8b 44 24 20       	mov    0x20(%rsp),%rax
    63ce:	48 8b 4c 24 20       	mov    0x20(%rsp),%rcx
    63d3:	48 8b 39             	mov    (%rcx),%rdi
    63d6:	48 89 44 24 18       	mov    %rax,0x18(%rsp)
    63db:	e8 40 47 00 00       	call   ab20 <_ZN119_$LT$core..ptr..non_null..NonNull$LT$T$GT$$u20$as$u20$core..convert..From$LT$core..ptr..unique..Unique$LT$T$GT$$GT$$GT$4from17h1d3cf9174d96422cE>
    63e0:	48 89 44 24 10       	mov    %rax,0x10(%rsp)
    63e5:	48 8b 7c 24 10       	mov    0x10(%rsp),%rdi
    63ea:	e8 f1 48 00 00       	call   ace0 <_ZN4core3ptr8non_null16NonNull$LT$T$GT$4cast17hd9fcebf1f0753193E>
    63ef:	48 89 44 24 08       	mov    %rax,0x8(%rsp)
    63f4:	48 8b 54 24 40       	mov    0x40(%rsp),%rdx
    63f9:	48 8b 4c 24 48       	mov    0x48(%rsp),%rcx
    63fe:	48 8b 7c 24 18       	mov    0x18(%rsp),%rdi
    6403:	48 8b 74 24 08       	mov    0x8(%rsp),%rsi
    6408:	e8 03 f5 ff ff       	call   5910 <_ZN59_$LT$alloc..alloc..Global$u20$as$u20$core..alloc..Alloc$GT$7dealloc17h42b5d0f54f2dc70cE>
    640d:	eb 00                	jmp    640f <_ZN5alloc7raw_vec19RawVec$LT$T$C$A$GT$14dealloc_buffer17h0f1053bc1141f356E+0xaf>
    640f:	eb 00                	jmp    6411 <_ZN5alloc7raw_vec19RawVec$LT$T$C$A$GT$14dealloc_buffer17h0f1053bc1141f356E+0xb1>
    6411:	48 83 c4 58          	add    $0x58,%rsp
    6415:	c3                   	ret
    6416:	66 2e 0f 1f 84 00 00 	cs nopw 0x0(%rax,%rax,1)
    641d:	00 00 00 

0000000000006420 <_ZN5alloc7raw_vec19RawVec$LT$T$C$A$GT$14dealloc_buffer17h12ae3814c26661a6E>:
    6420:	48 83 ec 58          	sub    $0x58,%rsp
    6424:	48 89 7c 24 20       	mov    %rdi,0x20(%rsp)
    6429:	48 c7 44 24 50 18 00 	movq   $0x18,0x50(%rsp)
    6430:	00 00 
    6432:	48 8b 44 24 50       	mov    0x50(%rsp),%rax
    6437:	48 89 44 24 28       	mov    %rax,0x28(%rsp)
    643c:	48 83 7c 24 28 00    	cmpq   $0x0,0x28(%rsp)
    6442:	0f 84 89 00 00 00    	je     64d1 <_ZN5alloc7raw_vec19RawVec$LT$T$C$A$GT$14dealloc_buffer17h12ae3814c26661a6E+0xb1>
    6448:	48 8b 7c 24 20       	mov    0x20(%rsp),%rdi
    644d:	e8 ce fd ff ff       	call   6220 <_ZN5alloc7raw_vec19RawVec$LT$T$C$A$GT$14current_layout17ha0fe409ec19508cdE>
    6452:	48 89 54 24 38       	mov    %rdx,0x38(%rsp)
    6457:	48 89 44 24 30       	mov    %rax,0x30(%rsp)
    645c:	31 c0                	xor    %eax,%eax
    645e:	89 c1                	mov    %eax,%ecx
    6460:	48 83 7c 24 38 00    	cmpq   $0x0,0x38(%rsp)
    6466:	ba 01 00 00 00       	mov    $0x1,%edx
    646b:	48 0f 46 d1          	cmovbe %rcx,%rdx
    646f:	48 83 fa 01          	cmp    $0x1,%rdx
    6473:	75 5a                	jne    64cf <_ZN5alloc7raw_vec19RawVec$LT$T$C$A$GT$14dealloc_buffer17h12ae3814c26661a6E+0xaf>
    6475:	48 8b 44 24 30       	mov    0x30(%rsp),%rax
    647a:	48 8b 4c 24 38       	mov    0x38(%rsp),%rcx
    647f:	48 89 44 24 40       	mov    %rax,0x40(%rsp)
    6484:	48 89 4c 24 48       	mov    %rcx,0x48(%rsp)
    6489:	48 8b 44 24 20       	mov    0x20(%rsp),%rax
    648e:	48 8b 4c 24 20       	mov    0x20(%rsp),%rcx
    6493:	48 8b 39             	mov    (%rcx),%rdi
    6496:	48 89 44 24 18       	mov    %rax,0x18(%rsp)
    649b:	e8 50 46 00 00       	call   aaf0 <_ZN119_$LT$core..ptr..non_null..NonNull$LT$T$GT$$u20$as$u20$core..convert..From$LT$core..ptr..unique..Unique$LT$T$GT$$GT$$GT$4from17h03697a75ae3dcd7bE>
    64a0:	48 89 44 24 10       	mov    %rax,0x10(%rsp)
    64a5:	48 8b 7c 24 10       	mov    0x10(%rsp),%rdi
    64aa:	e8 f1 47 00 00       	call   aca0 <_ZN4core3ptr8non_null16NonNull$LT$T$GT$4cast17hc188c95f817d3fe4E>
    64af:	48 89 44 24 08       	mov    %rax,0x8(%rsp)
    64b4:	48 8b 54 24 40       	mov    0x40(%rsp),%rdx
    64b9:	48 8b 4c 24 48       	mov    0x48(%rsp),%rcx
    64be:	48 8b 7c 24 18       	mov    0x18(%rsp),%rdi
    64c3:	48 8b 74 24 08       	mov    0x8(%rsp),%rsi
    64c8:	e8 43 f4 ff ff       	call   5910 <_ZN59_$LT$alloc..alloc..Global$u20$as$u20$core..alloc..Alloc$GT$7dealloc17h42b5d0f54f2dc70cE>
    64cd:	eb 00                	jmp    64cf <_ZN5alloc7raw_vec19RawVec$LT$T$C$A$GT$14dealloc_buffer17h12ae3814c26661a6E+0xaf>
    64cf:	eb 00                	jmp    64d1 <_ZN5alloc7raw_vec19RawVec$LT$T$C$A$GT$14dealloc_buffer17h12ae3814c26661a6E+0xb1>
    64d1:	48 83 c4 58          	add    $0x58,%rsp
    64d5:	c3                   	ret
    64d6:	66 2e 0f 1f 84 00 00 	cs nopw 0x0(%rax,%rax,1)
    64dd:	00 00 00 

00000000000064e0 <_ZN5alloc7raw_vec19RawVec$LT$T$C$A$GT$14dealloc_buffer17h179deaf0310070ecE>:
    64e0:	48 83 ec 58          	sub    $0x58,%rsp
    64e4:	48 89 7c 24 20       	mov    %rdi,0x20(%rsp)
    64e9:	48 c7 44 24 50 01 00 	movq   $0x1,0x50(%rsp)
    64f0:	00 00 
    64f2:	48 8b 44 24 50       	mov    0x50(%rsp),%rax
    64f7:	48 89 44 24 28       	mov    %rax,0x28(%rsp)
    64fc:	48 83 7c 24 28 00    	cmpq   $0x0,0x28(%rsp)
    6502:	0f 84 89 00 00 00    	je     6591 <_ZN5alloc7raw_vec19RawVec$LT$T$C$A$GT$14dealloc_buffer17h179deaf0310070ecE+0xb1>
    6508:	48 8b 7c 24 20       	mov    0x20(%rsp),%rdi
    650d:	e8 ae fd ff ff       	call   62c0 <_ZN5alloc7raw_vec19RawVec$LT$T$C$A$GT$14current_layout17hc47dcd3c4f665ac9E>
    6512:	48 89 54 24 38       	mov    %rdx,0x38(%rsp)
    6517:	48 89 44 24 30       	mov    %rax,0x30(%rsp)
    651c:	31 c0                	xor    %eax,%eax
    651e:	89 c1                	mov    %eax,%ecx
    6520:	48 83 7c 24 38 00    	cmpq   $0x0,0x38(%rsp)
    6526:	ba 01 00 00 00       	mov    $0x1,%edx
    652b:	48 0f 46 d1          	cmovbe %rcx,%rdx
    652f:	48 83 fa 01          	cmp    $0x1,%rdx
    6533:	75 5a                	jne    658f <_ZN5alloc7raw_vec19RawVec$LT$T$C$A$GT$14dealloc_buffer17h179deaf0310070ecE+0xaf>
    6535:	48 8b 44 24 30       	mov    0x30(%rsp),%rax
    653a:	48 8b 4c 24 38       	mov    0x38(%rsp),%rcx
    653f:	48 89 44 24 40       	mov    %rax,0x40(%rsp)
    6544:	48 89 4c 24 48       	mov    %rcx,0x48(%rsp)
    6549:	48 8b 44 24 20       	mov    0x20(%rsp),%rax
    654e:	48 8b 4c 24 20       	mov    0x20(%rsp),%rcx
    6553:	48 8b 39             	mov    (%rcx),%rdi
    6556:	48 89 44 24 18       	mov    %rax,0x18(%rsp)
    655b:	e8 f0 45 00 00       	call   ab50 <_ZN119_$LT$core..ptr..non_null..NonNull$LT$T$GT$$u20$as$u20$core..convert..From$LT$core..ptr..unique..Unique$LT$T$GT$$GT$$GT$4from17h83e0001419513ef9E>
    6560:	48 89 44 24 10       	mov    %rax,0x10(%rsp)
    6565:	48 8b 7c 24 10       	mov    0x10(%rsp),%rdi
    656a:	e8 c1 46 00 00       	call   ac30 <_ZN4core3ptr8non_null16NonNull$LT$T$GT$4cast17h6874a9b9c28fc561E>
    656f:	48 89 44 24 08       	mov    %rax,0x8(%rsp)
    6574:	48 8b 54 24 40       	mov    0x40(%rsp),%rdx
    6579:	48 8b 4c 24 48       	mov    0x48(%rsp),%rcx
    657e:	48 8b 7c 24 18       	mov    0x18(%rsp),%rdi
    6583:	48 8b 74 24 08       	mov    0x8(%rsp),%rsi
    6588:	e8 83 f3 ff ff       	call   5910 <_ZN59_$LT$alloc..alloc..Global$u20$as$u20$core..alloc..Alloc$GT$7dealloc17h42b5d0f54f2dc70cE>
    658d:	eb 00                	jmp    658f <_ZN5alloc7raw_vec19RawVec$LT$T$C$A$GT$14dealloc_buffer17h179deaf0310070ecE+0xaf>
    658f:	eb 00                	jmp    6591 <_ZN5alloc7raw_vec19RawVec$LT$T$C$A$GT$14dealloc_buffer17h179deaf0310070ecE+0xb1>
    6591:	48 83 c4 58          	add    $0x58,%rsp
    6595:	c3                   	ret
    6596:	66 2e 0f 1f 84 00 00 	cs nopw 0x0(%rax,%rax,1)
    659d:	00 00 00 

00000000000065a0 <_ZN5alloc7raw_vec19RawVec$LT$T$C$A$GT$16reserve_internal17h7ad17d80c8349b56E>:
    65a0:	48 81 ec d8 02 00 00 	sub    $0x2d8,%rsp
    65a7:	48 89 f8             	mov    %rdi,%rax
    65aa:	48 89 b4 24 d8 00 00 	mov    %rsi,0xd8(%rsp)
    65b1:	00 
    65b2:	48 89 94 24 e0 00 00 	mov    %rdx,0xe0(%rsp)
    65b9:	00 
    65ba:	48 89 8c 24 e8 00 00 	mov    %rcx,0xe8(%rsp)
    65c1:	00 
    65c2:	41 80 e0 01          	and    $0x1,%r8b
    65c6:	44 88 84 24 f6 00 00 	mov    %r8b,0xf6(%rsp)
    65cd:	00 
    65ce:	41 80 e1 01          	and    $0x1,%r9b
    65d2:	44 88 8c 24 f7 00 00 	mov    %r9b,0xf7(%rsp)
    65d9:	00 
    65da:	48 8b 8c 24 d8 00 00 	mov    0xd8(%rsp),%rcx
    65e1:	00 
    65e2:	48 89 8c 24 c0 02 00 	mov    %rcx,0x2c0(%rsp)
    65e9:	00 
    65ea:	48 c7 84 24 d0 02 00 	movq   $0x18,0x2d0(%rsp)
    65f1:	00 18 00 00 00 
    65f6:	48 83 bc 24 d0 02 00 	cmpq   $0x0,0x2d0(%rsp)
    65fd:	00 00 
    65ff:	48 89 bc 24 d0 00 00 	mov    %rdi,0xd0(%rsp)
    6606:	00 
    6607:	48 89 84 24 c8 00 00 	mov    %rax,0xc8(%rsp)
    660e:	00 
    660f:	74 16                	je     6627 <_ZN5alloc7raw_vec19RawVec$LT$T$C$A$GT$16reserve_internal17h7ad17d80c8349b56E+0x87>
    6611:	48 8b 84 24 c0 02 00 	mov    0x2c0(%rsp),%rax
    6618:	00 
    6619:	48 8b 40 08          	mov    0x8(%rax),%rax
    661d:	48 89 84 24 c8 02 00 	mov    %rax,0x2c8(%rsp)
    6624:	00 
    6625:	eb 0c                	jmp    6633 <_ZN5alloc7raw_vec19RawVec$LT$T$C$A$GT$16reserve_internal17h7ad17d80c8349b56E+0x93>
    6627:	48 c7 84 24 c8 02 00 	movq   $0xffffffffffffffff,0x2c8(%rsp)
    662e:	00 ff ff ff ff 
    6633:	48 8b bc 24 c8 02 00 	mov    0x2c8(%rsp),%rdi
    663a:	00 
    663b:	48 89 bc 24 c0 00 00 	mov    %rdi,0xc0(%rsp)
    6642:	00 
    6643:	48 8b b4 24 e0 00 00 	mov    0xe0(%rsp),%rsi
    664a:	00 
    664b:	48 8b bc 24 c0 00 00 	mov    0xc0(%rsp),%rdi
    6652:	00 
    6653:	e8 08 53 00 00       	call   b960 <_ZN4core3num23_$LT$impl$u20$usize$GT$12wrapping_sub17h43a5262a6b5f97e5E>
    6658:	48 89 84 24 b8 00 00 	mov    %rax,0xb8(%rsp)
    665f:	00 
    6660:	48 8b 84 24 b8 00 00 	mov    0xb8(%rsp),%rax
    6667:	00 
    6668:	48 3b 84 24 e8 00 00 	cmp    0xe8(%rsp),%rax
    666f:	00 
    6670:	73 13                	jae    6685 <_ZN5alloc7raw_vec19RawVec$LT$T$C$A$GT$16reserve_internal17h7ad17d80c8349b56E+0xe5>
    6672:	0f b6 84 24 f7 00 00 	movzbl 0xf7(%rsp),%eax
    6679:	00 
    667a:	89 c1                	mov    %eax,%ecx
    667c:	f6 c1 01             	test   $0x1,%cl
    667f:	74 4f                	je     66d0 <_ZN5alloc7raw_vec19RawVec$LT$T$C$A$GT$16reserve_internal17h7ad17d80c8349b56E+0x130>
    6681:	eb 00                	jmp    6683 <_ZN5alloc7raw_vec19RawVec$LT$T$C$A$GT$16reserve_internal17h7ad17d80c8349b56E+0xe3>
    6683:	eb 1f                	jmp    66a4 <_ZN5alloc7raw_vec19RawVec$LT$T$C$A$GT$16reserve_internal17h7ad17d80c8349b56E+0x104>
    6685:	48 8b 84 24 d0 00 00 	mov    0xd0(%rsp),%rax
    668c:	00 
    668d:	48 c7 00 00 00 00 00 	movq   $0x0,(%rax)
    6694:	48 8b 84 24 c8 00 00 	mov    0xc8(%rsp),%rax
    669b:	00 
    669c:	48 81 c4 d8 02 00 00 	add    $0x2d8,%rsp
    66a3:	c3                   	ret
    66a4:	48 8b b4 24 d8 00 00 	mov    0xd8(%rsp),%rsi
    66ab:	00 
    66ac:	48 8b 94 24 e0 00 00 	mov    0xe0(%rsp),%rdx
    66b3:	00 
    66b4:	48 8b 8c 24 e8 00 00 	mov    0xe8(%rsp),%rcx
    66bb:	00 
    66bc:	48 8d bc 24 78 01 00 	lea    0x178(%rsp),%rdi
    66c3:	00 
    66c4:	e8 97 0d 00 00       	call   7460 <_ZN5alloc7raw_vec19RawVec$LT$T$C$A$GT$18amortized_new_size17h0c59a61c4f37407bE>
    66c9:	e9 16 01 00 00       	jmp    67e4 <_ZN5alloc7raw_vec19RawVec$LT$T$C$A$GT$16reserve_internal17h7ad17d80c8349b56E+0x244>
    66ce:	0f 0b                	ud2
    66d0:	48 8b bc 24 e0 00 00 	mov    0xe0(%rsp),%rdi
    66d7:	00 
    66d8:	48 8b b4 24 e8 00 00 	mov    0xe8(%rsp),%rsi
    66df:	00 
    66e0:	e8 6b 51 00 00       	call   b850 <_ZN4core3num23_$LT$impl$u20$usize$GT$11checked_add17h28d1784e2d208833E>
    66e5:	48 89 84 24 b0 00 00 	mov    %rax,0xb0(%rsp)
    66ec:	00 
    66ed:	48 89 94 24 a8 00 00 	mov    %rdx,0xa8(%rsp)
    66f4:	00 
    66f5:	48 c7 84 24 40 01 00 	movq   $0x0,0x140(%rsp)
    66fc:	00 00 00 00 00 
    6701:	48 8b 8c 24 38 01 00 	mov    0x138(%rsp),%rcx
    6708:	00 
    6709:	4c 8b 84 24 40 01 00 	mov    0x140(%rsp),%r8
    6710:	00 
    6711:	48 8d bc 24 20 01 00 	lea    0x120(%rsp),%rdi
    6718:	00 
    6719:	48 8b b4 24 b0 00 00 	mov    0xb0(%rsp),%rsi
    6720:	00 
    6721:	48 8b 94 24 a8 00 00 	mov    0xa8(%rsp),%rdx
    6728:	00 
    6729:	e8 32 2c 00 00       	call   9360 <_ZN4core6option15Option$LT$T$GT$5ok_or17h10e8738980183248E>
    672e:	48 8d bc 24 08 01 00 	lea    0x108(%rsp),%rdi
    6735:	00 
    6736:	48 8d b4 24 20 01 00 	lea    0x120(%rsp),%rsi
    673d:	00 
    673e:	e8 4d 1d 00 00       	call   8490 <_ZN73_$LT$core..result..Result$LT$T$C$E$GT$$u20$as$u20$core..ops..try..Try$GT$11into_result17h60e75ce10712b7f7E>
    6743:	48 8b 84 24 08 01 00 	mov    0x108(%rsp),%rax
    674a:	00 
    674b:	48 85 c0             	test   %rax,%rax
    674e:	74 6f                	je     67bf <_ZN5alloc7raw_vec19RawVec$LT$T$C$A$GT$16reserve_internal17h7ad17d80c8349b56E+0x21f>
    6750:	eb 00                	jmp    6752 <_ZN5alloc7raw_vec19RawVec$LT$T$C$A$GT$16reserve_internal17h7ad17d80c8349b56E+0x1b2>
    6752:	eb 02                	jmp    6756 <_ZN5alloc7raw_vec19RawVec$LT$T$C$A$GT$16reserve_internal17h7ad17d80c8349b56E+0x1b6>
    6754:	0f 0b                	ud2
    6756:	48 8b 84 24 10 01 00 	mov    0x110(%rsp),%rax
    675d:	00 
    675e:	48 8b 8c 24 18 01 00 	mov    0x118(%rsp),%rcx
    6765:	00 
    6766:	48 89 84 24 48 01 00 	mov    %rax,0x148(%rsp)
    676d:	00 
    676e:	48 89 8c 24 50 01 00 	mov    %rcx,0x150(%rsp)
    6775:	00 
    6776:	48 8b bc 24 48 01 00 	mov    0x148(%rsp),%rdi
    677d:	00 
    677e:	48 8b b4 24 50 01 00 	mov    0x150(%rsp),%rsi
    6785:	00 
    6786:	e8 f5 42 00 00       	call   aa80 <_ZN50_$LT$T$u20$as$u20$core..convert..From$LT$T$GT$$GT$4from17h621deee0c037ad14E>
    678b:	48 89 84 24 a0 00 00 	mov    %rax,0xa0(%rsp)
    6792:	00 
    6793:	48 89 94 24 98 00 00 	mov    %rdx,0x98(%rsp)
    679a:	00 
    679b:	48 8b bc 24 d0 00 00 	mov    0xd0(%rsp),%rdi
    67a2:	00 
    67a3:	48 8b b4 24 a0 00 00 	mov    0xa0(%rsp),%rsi
    67aa:	00 
    67ab:	48 8b 94 24 98 00 00 	mov    0x98(%rsp),%rdx
    67b2:	00 
    67b3:	e8 78 1c 00 00       	call   8430 <_ZN73_$LT$core..result..Result$LT$T$C$E$GT$$u20$as$u20$core..ops..try..Try$GT$10from_error17h51b2a0a500374a3cE>
    67b8:	eb 00                	jmp    67ba <_ZN5alloc7raw_vec19RawVec$LT$T$C$A$GT$16reserve_internal17h7ad17d80c8349b56E+0x21a>
    67ba:	e9 d5 fe ff ff       	jmp    6694 <_ZN5alloc7raw_vec19RawVec$LT$T$C$A$GT$16reserve_internal17h7ad17d80c8349b56E+0xf4>
    67bf:	48 8b 84 24 10 01 00 	mov    0x110(%rsp),%rax
    67c6:	00 
    67c7:	48 89 84 24 58 01 00 	mov    %rax,0x158(%rsp)
    67ce:	00 
    67cf:	48 8b 84 24 58 01 00 	mov    0x158(%rsp),%rax
    67d6:	00 
    67d7:	48 89 84 24 00 01 00 	mov    %rax,0x100(%rsp)
    67de:	00 
    67df:	e9 af 00 00 00       	jmp    6893 <_ZN5alloc7raw_vec19RawVec$LT$T$C$A$GT$16reserve_internal17h7ad17d80c8349b56E+0x2f3>
    67e4:	48 8d bc 24 60 01 00 	lea    0x160(%rsp),%rdi
    67eb:	00 
    67ec:	48 8d b4 24 78 01 00 	lea    0x178(%rsp),%rsi
    67f3:	00 
    67f4:	e8 97 1c 00 00       	call   8490 <_ZN73_$LT$core..result..Result$LT$T$C$E$GT$$u20$as$u20$core..ops..try..Try$GT$11into_result17h60e75ce10712b7f7E>
    67f9:	48 8b 84 24 60 01 00 	mov    0x160(%rsp),%rax
    6800:	00 
    6801:	48 85 c0             	test   %rax,%rax
    6804:	74 6d                	je     6873 <_ZN5alloc7raw_vec19RawVec$LT$T$C$A$GT$16reserve_internal17h7ad17d80c8349b56E+0x2d3>
    6806:	eb 00                	jmp    6808 <_ZN5alloc7raw_vec19RawVec$LT$T$C$A$GT$16reserve_internal17h7ad17d80c8349b56E+0x268>
    6808:	eb 02                	jmp    680c <_ZN5alloc7raw_vec19RawVec$LT$T$C$A$GT$16reserve_internal17h7ad17d80c8349b56E+0x26c>
    680a:	0f 0b                	ud2
    680c:	48 8b 84 24 68 01 00 	mov    0x168(%rsp),%rax
    6813:	00 
    6814:	48 8b 8c 24 70 01 00 	mov    0x170(%rsp),%rcx
    681b:	00 
    681c:	48 89 84 24 90 01 00 	mov    %rax,0x190(%rsp)
    6823:	00 
    6824:	48 89 8c 24 98 01 00 	mov    %rcx,0x198(%rsp)
    682b:	00 
    682c:	48 8b bc 24 90 01 00 	mov    0x190(%rsp),%rdi
    6833:	00 
    6834:	48 8b b4 24 98 01 00 	mov    0x198(%rsp),%rsi
    683b:	00 
    683c:	e8 3f 42 00 00       	call   aa80 <_ZN50_$LT$T$u20$as$u20$core..convert..From$LT$T$GT$$GT$4from17h621deee0c037ad14E>
    6841:	48 89 84 24 90 00 00 	mov    %rax,0x90(%rsp)
    6848:	00 
    6849:	48 89 94 24 88 00 00 	mov    %rdx,0x88(%rsp)
    6850:	00 
    6851:	48 8b bc 24 d0 00 00 	mov    0xd0(%rsp),%rdi
    6858:	00 
    6859:	48 8b b4 24 90 00 00 	mov    0x90(%rsp),%rsi
    6860:	00 
    6861:	48 8b 94 24 88 00 00 	mov    0x88(%rsp),%rdx
    6868:	00 
    6869:	e8 c2 1b 00 00       	call   8430 <_ZN73_$LT$core..result..Result$LT$T$C$E$GT$$u20$as$u20$core..ops..try..Try$GT$10from_error17h51b2a0a500374a3cE>
    686e:	e9 47 ff ff ff       	jmp    67ba <_ZN5alloc7raw_vec19RawVec$LT$T$C$A$GT$16reserve_internal17h7ad17d80c8349b56E+0x21a>
    6873:	48 8b 84 24 68 01 00 	mov    0x168(%rsp),%rax
    687a:	00 
    687b:	48 89 84 24 a0 01 00 	mov    %rax,0x1a0(%rsp)
    6882:	00 
    6883:	48 8b 84 24 a0 01 00 	mov    0x1a0(%rsp),%rax
    688a:	00 
    688b:	48 89 84 24 00 01 00 	mov    %rax,0x100(%rsp)
    6892:	00 
    6893:	48 8b bc 24 00 01 00 	mov    0x100(%rsp),%rdi
    689a:	00 
    689b:	e8 20 4d 00 00       	call   b5c0 <_ZN4core5alloc6Layout5array17h101fd85fe937e9c3E>
    68a0:	48 89 84 24 80 00 00 	mov    %rax,0x80(%rsp)
    68a7:	00 
    68a8:	48 89 54 24 78       	mov    %rdx,0x78(%rsp)
    68ad:	48 8d bc 24 d0 01 00 	lea    0x1d0(%rsp),%rdi
    68b4:	00 
    68b5:	48 8b b4 24 80 00 00 	mov    0x80(%rsp),%rsi
    68bc:	00 
    68bd:	48 8b 54 24 78       	mov    0x78(%rsp),%rdx
    68c2:	e8 b9 19 00 00       	call   8280 <_ZN4core6result19Result$LT$T$C$E$GT$7map_err17h3f47a5fee7edf6e1E>
    68c7:	48 8d bc 24 b8 01 00 	lea    0x1b8(%rsp),%rdi
    68ce:	00 
    68cf:	48 8d b4 24 d0 01 00 	lea    0x1d0(%rsp),%rsi
    68d6:	00 
    68d7:	e8 94 1b 00 00       	call   8470 <_ZN73_$LT$core..result..Result$LT$T$C$E$GT$$u20$as$u20$core..ops..try..Try$GT$11into_result17h5a505f12bfc5add4E>
    68dc:	48 8b 84 24 b8 01 00 	mov    0x1b8(%rsp),%rax
    68e3:	00 
    68e4:	48 85 c0             	test   %rax,%rax
    68e7:	74 63                	je     694c <_ZN5alloc7raw_vec19RawVec$LT$T$C$A$GT$16reserve_internal17h7ad17d80c8349b56E+0x3ac>
    68e9:	eb 00                	jmp    68eb <_ZN5alloc7raw_vec19RawVec$LT$T$C$A$GT$16reserve_internal17h7ad17d80c8349b56E+0x34b>
    68eb:	eb 02                	jmp    68ef <_ZN5alloc7raw_vec19RawVec$LT$T$C$A$GT$16reserve_internal17h7ad17d80c8349b56E+0x34f>
    68ed:	0f 0b                	ud2
    68ef:	48 8b 84 24 c0 01 00 	mov    0x1c0(%rsp),%rax
    68f6:	00 
    68f7:	48 8b 8c 24 c8 01 00 	mov    0x1c8(%rsp),%rcx
    68fe:	00 
    68ff:	48 89 84 24 f0 01 00 	mov    %rax,0x1f0(%rsp)
    6906:	00 
    6907:	48 89 8c 24 f8 01 00 	mov    %rcx,0x1f8(%rsp)
    690e:	00 
    690f:	48 8b bc 24 f0 01 00 	mov    0x1f0(%rsp),%rdi
    6916:	00 
    6917:	48 8b b4 24 f8 01 00 	mov    0x1f8(%rsp),%rsi
    691e:	00 
    691f:	e8 5c 41 00 00       	call   aa80 <_ZN50_$LT$T$u20$as$u20$core..convert..From$LT$T$GT$$GT$4from17h621deee0c037ad14E>
    6924:	48 89 44 24 70       	mov    %rax,0x70(%rsp)
    6929:	48 89 54 24 68       	mov    %rdx,0x68(%rsp)
    692e:	48 8b bc 24 d0 00 00 	mov    0xd0(%rsp),%rdi
    6935:	00 
    6936:	48 8b 74 24 70       	mov    0x70(%rsp),%rsi
    693b:	48 8b 54 24 68       	mov    0x68(%rsp),%rdx
    6940:	e8 eb 1a 00 00       	call   8430 <_ZN73_$LT$core..result..Result$LT$T$C$E$GT$$u20$as$u20$core..ops..try..Try$GT$10from_error17h51b2a0a500374a3cE>
    6945:	eb 00                	jmp    6947 <_ZN5alloc7raw_vec19RawVec$LT$T$C$A$GT$16reserve_internal17h7ad17d80c8349b56E+0x3a7>
    6947:	e9 6e fe ff ff       	jmp    67ba <_ZN5alloc7raw_vec19RawVec$LT$T$C$A$GT$16reserve_internal17h7ad17d80c8349b56E+0x21a>
    694c:	48 8b 84 24 c0 01 00 	mov    0x1c0(%rsp),%rax
    6953:	00 
    6954:	48 8b 8c 24 c8 01 00 	mov    0x1c8(%rsp),%rcx
    695b:	00 
    695c:	48 89 84 24 00 02 00 	mov    %rax,0x200(%rsp)
    6963:	00 
    6964:	48 89 8c 24 08 02 00 	mov    %rcx,0x208(%rsp)
    696b:	00 
    696c:	48 8b 84 24 00 02 00 	mov    0x200(%rsp),%rax
    6973:	00 
    6974:	48 8b 8c 24 08 02 00 	mov    0x208(%rsp),%rcx
    697b:	00 
    697c:	48 89 84 24 a8 01 00 	mov    %rax,0x1a8(%rsp)
    6983:	00 
    6984:	48 89 8c 24 b0 01 00 	mov    %rcx,0x1b0(%rsp)
    698b:	00 
    698c:	48 8d bc 24 a8 01 00 	lea    0x1a8(%rsp),%rdi
    6993:	00 
    6994:	e8 47 1d 00 00       	call   86e0 <_ZN4core5alloc6Layout4size17h9bf1fbf5534a4197E>
    6999:	48 89 44 24 60       	mov    %rax,0x60(%rsp)
    699e:	48 8d bc 24 28 02 00 	lea    0x228(%rsp),%rdi
    69a5:	00 
    69a6:	48 8b 74 24 60       	mov    0x60(%rsp),%rsi
    69ab:	e8 90 e8 ff ff       	call   5240 <_ZN5alloc7raw_vec11alloc_guard17h1bfa7b3fd4462045E>
    69b0:	48 8d bc 24 10 02 00 	lea    0x210(%rsp),%rdi
    69b7:	00 
    69b8:	48 8d b4 24 28 02 00 	lea    0x228(%rsp),%rsi
    69bf:	00 
    69c0:	e8 0b 1b 00 00       	call   84d0 <_ZN73_$LT$core..result..Result$LT$T$C$E$GT$$u20$as$u20$core..ops..try..Try$GT$11into_result17hbb7ad9f1fd9787f1E>
    69c5:	48 8b 84 24 10 02 00 	mov    0x210(%rsp),%rax
    69cc:	00 
    69cd:	48 85 c0             	test   %rax,%rax
    69d0:	74 61                	je     6a33 <_ZN5alloc7raw_vec19RawVec$LT$T$C$A$GT$16reserve_internal17h7ad17d80c8349b56E+0x493>
    69d2:	eb 00                	jmp    69d4 <_ZN5alloc7raw_vec19RawVec$LT$T$C$A$GT$16reserve_internal17h7ad17d80c8349b56E+0x434>
    69d4:	eb 02                	jmp    69d8 <_ZN5alloc7raw_vec19RawVec$LT$T$C$A$GT$16reserve_internal17h7ad17d80c8349b56E+0x438>
    69d6:	0f 0b                	ud2
    69d8:	48 8b 84 24 18 02 00 	mov    0x218(%rsp),%rax
    69df:	00 
    69e0:	48 8b 8c 24 20 02 00 	mov    0x220(%rsp),%rcx
    69e7:	00 
    69e8:	48 89 84 24 40 02 00 	mov    %rax,0x240(%rsp)
    69ef:	00 
    69f0:	48 89 8c 24 48 02 00 	mov    %rcx,0x248(%rsp)
    69f7:	00 
    69f8:	48 8b bc 24 40 02 00 	mov    0x240(%rsp),%rdi
    69ff:	00 
    6a00:	48 8b b4 24 48 02 00 	mov    0x248(%rsp),%rsi
    6a07:	00 
    6a08:	e8 73 40 00 00       	call   aa80 <_ZN50_$LT$T$u20$as$u20$core..convert..From$LT$T$GT$$GT$4from17h621deee0c037ad14E>
    6a0d:	48 89 44 24 58       	mov    %rax,0x58(%rsp)
    6a12:	48 89 54 24 50       	mov    %rdx,0x50(%rsp)
    6a17:	48 8b bc 24 d0 00 00 	mov    0xd0(%rsp),%rdi
    6a1e:	00 
    6a1f:	48 8b 74 24 58       	mov    0x58(%rsp),%rsi
    6a24:	48 8b 54 24 50       	mov    0x50(%rsp),%rdx
    6a29:	e8 02 1a 00 00       	call   8430 <_ZN73_$LT$core..result..Result$LT$T$C$E$GT$$u20$as$u20$core..ops..try..Try$GT$10from_error17h51b2a0a500374a3cE>
    6a2e:	e9 14 ff ff ff       	jmp    6947 <_ZN5alloc7raw_vec19RawVec$LT$T$C$A$GT$16reserve_internal17h7ad17d80c8349b56E+0x3a7>
    6a33:	48 8b bc 24 d8 00 00 	mov    0xd8(%rsp),%rdi
    6a3a:	00 
    6a3b:	e8 40 f7 ff ff       	call   6180 <_ZN5alloc7raw_vec19RawVec$LT$T$C$A$GT$14current_layout17h0f2b340e26ba17a0E>
    6a40:	48 89 94 24 68 02 00 	mov    %rdx,0x268(%rsp)
    6a47:	00 
    6a48:	48 89 84 24 60 02 00 	mov    %rax,0x260(%rsp)
    6a4f:	00 
    6a50:	48 8b 84 24 68 02 00 	mov    0x268(%rsp),%rax
    6a57:	00 
    6a58:	48 85 c0             	test   %rax,%rax
    6a5b:	0f 95 c1             	setne  %cl
    6a5e:	0f b6 d1             	movzbl %cl,%edx
    6a61:	89 d0                	mov    %edx,%eax
    6a63:	74 04                	je     6a69 <_ZN5alloc7raw_vec19RawVec$LT$T$C$A$GT$16reserve_internal17h7ad17d80c8349b56E+0x4c9>
    6a65:	eb 00                	jmp    6a67 <_ZN5alloc7raw_vec19RawVec$LT$T$C$A$GT$16reserve_internal17h7ad17d80c8349b56E+0x4c7>
    6a67:	eb 2f                	jmp    6a98 <_ZN5alloc7raw_vec19RawVec$LT$T$C$A$GT$16reserve_internal17h7ad17d80c8349b56E+0x4f8>
    6a69:	48 8b 84 24 d8 00 00 	mov    0xd8(%rsp),%rax
    6a70:	00 
    6a71:	48 8b b4 24 a8 01 00 	mov    0x1a8(%rsp),%rsi
    6a78:	00 
    6a79:	48 8b 94 24 b0 01 00 	mov    0x1b0(%rsp),%rdx
    6a80:	00 
    6a81:	48 89 c7             	mov    %rax,%rdi
    6a84:	e8 37 ee ff ff       	call   58c0 <_ZN59_$LT$alloc..alloc..Global$u20$as$u20$core..alloc..Alloc$GT$5alloc17ha6b4b6aa7e6d2807E>
    6a89:	48 89 84 24 58 02 00 	mov    %rax,0x258(%rsp)
    6a90:	00 
    6a91:	e9 0b 01 00 00       	jmp    6ba1 <_ZN5alloc7raw_vec19RawVec$LT$T$C$A$GT$16reserve_internal17h7ad17d80c8349b56E+0x601>
    6a96:	0f 0b                	ud2
    6a98:	31 c0                	xor    %eax,%eax
    6a9a:	48 8b 8c 24 60 02 00 	mov    0x260(%rsp),%rcx
    6aa1:	00 
    6aa2:	48 8b 94 24 68 02 00 	mov    0x268(%rsp),%rdx
    6aa9:	00 
    6aaa:	48 89 8c 24 70 02 00 	mov    %rcx,0x270(%rsp)
    6ab1:	00 
    6ab2:	48 89 94 24 78 02 00 	mov    %rdx,0x278(%rsp)
    6ab9:	00 
    6aba:	a8 01                	test   $0x1,%al
    6abc:	75 02                	jne    6ac0 <_ZN5alloc7raw_vec19RawVec$LT$T$C$A$GT$16reserve_internal17h7ad17d80c8349b56E+0x520>
    6abe:	eb 5c                	jmp    6b1c <_ZN5alloc7raw_vec19RawVec$LT$T$C$A$GT$16reserve_internal17h7ad17d80c8349b56E+0x57c>
    6ac0:	48 8d bc 24 a8 01 00 	lea    0x1a8(%rsp),%rdi
    6ac7:	00 
    6ac8:	e8 23 1c 00 00       	call   86f0 <_ZN4core5alloc6Layout5align17h657c4871dbba8b80E>
    6acd:	48 89 44 24 48       	mov    %rax,0x48(%rsp)
    6ad2:	48 8d bc 24 70 02 00 	lea    0x270(%rsp),%rdi
    6ad9:	00 
    6ada:	e8 11 1c 00 00       	call   86f0 <_ZN4core5alloc6Layout5align17h657c4871dbba8b80E>
    6adf:	48 89 44 24 40       	mov    %rax,0x40(%rsp)
    6ae4:	48 8b 44 24 48       	mov    0x48(%rsp),%rax
    6ae9:	48 8b 4c 24 40       	mov    0x40(%rsp),%rcx
    6aee:	48 39 c8             	cmp    %rcx,%rax
    6af1:	0f 94 c2             	sete   %dl
    6af4:	80 f2 ff             	xor    $0xff,%dl
    6af7:	f6 c2 01             	test   $0x1,%dl
    6afa:	75 02                	jne    6afe <_ZN5alloc7raw_vec19RawVec$LT$T$C$A$GT$16reserve_internal17h7ad17d80c8349b56E+0x55e>
    6afc:	eb 1e                	jmp    6b1c <_ZN5alloc7raw_vec19RawVec$LT$T$C$A$GT$16reserve_internal17h7ad17d80c8349b56E+0x57c>
    6afe:	48 8d 3d fb 94 02 00 	lea    0x294fb(%rip),%rdi        # 30000 <_fini+0xaa8>
    6b05:	48 8d 15 c4 82 03 00 	lea    0x382c4(%rip),%rdx        # 3edd0 <__do_global_dtors_aux_fini_array_entry+0x8>
    6b0c:	48 8d 05 fd 30 02 00 	lea    0x230fd(%rip),%rax        # 29c10 <_ZN4core9panicking5panic17hb5daa85c7c72fc62E>
    6b13:	be 36 00 00 00       	mov    $0x36,%esi
    6b18:	ff d0                	call   *%rax
    6b1a:	0f 0b                	ud2
    6b1c:	48 8b 84 24 d8 00 00 	mov    0xd8(%rsp),%rax
    6b23:	00 
    6b24:	48 8b 8c 24 d8 00 00 	mov    0xd8(%rsp),%rcx
    6b2b:	00 
    6b2c:	48 8b 39             	mov    (%rcx),%rdi
    6b2f:	48 89 44 24 38       	mov    %rax,0x38(%rsp)
    6b34:	e8 e7 3f 00 00       	call   ab20 <_ZN119_$LT$core..ptr..non_null..NonNull$LT$T$GT$$u20$as$u20$core..convert..From$LT$core..ptr..unique..Unique$LT$T$GT$$GT$$GT$4from17h1d3cf9174d96422cE>
    6b39:	48 89 44 24 30       	mov    %rax,0x30(%rsp)
    6b3e:	48 8b 7c 24 30       	mov    0x30(%rsp),%rdi
    6b43:	e8 98 41 00 00       	call   ace0 <_ZN4core3ptr8non_null16NonNull$LT$T$GT$4cast17hd9fcebf1f0753193E>
    6b48:	48 89 44 24 28       	mov    %rax,0x28(%rsp)
    6b4d:	48 8b 94 24 70 02 00 	mov    0x270(%rsp),%rdx
    6b54:	00 
    6b55:	48 8b 8c 24 78 02 00 	mov    0x278(%rsp),%rcx
    6b5c:	00 
    6b5d:	48 8d bc 24 a8 01 00 	lea    0x1a8(%rsp),%rdi
    6b64:	00 
    6b65:	48 89 54 24 20       	mov    %rdx,0x20(%rsp)
    6b6a:	48 89 4c 24 18       	mov    %rcx,0x18(%rsp)
    6b6f:	e8 6c 1b 00 00       	call   86e0 <_ZN4core5alloc6Layout4size17h9bf1fbf5534a4197E>
    6b74:	48 89 44 24 10       	mov    %rax,0x10(%rsp)
    6b79:	48 8b 7c 24 38       	mov    0x38(%rsp),%rdi
    6b7e:	48 8b 74 24 28       	mov    0x28(%rsp),%rsi
    6b83:	48 8b 54 24 20       	mov    0x20(%rsp),%rdx
    6b88:	48 8b 4c 24 18       	mov    0x18(%rsp),%rcx
    6b8d:	4c 8b 44 24 10       	mov    0x10(%rsp),%r8
    6b92:	e8 b9 ed ff ff       	call   5950 <_ZN59_$LT$alloc..alloc..Global$u20$as$u20$core..alloc..Alloc$GT$7realloc17hd422c367e5276958E>
    6b97:	48 89 84 24 58 02 00 	mov    %rax,0x258(%rsp)
    6b9e:	00 
    6b9f:	eb 02                	jmp    6ba3 <_ZN5alloc7raw_vec19RawVec$LT$T$C$A$GT$16reserve_internal17h7ad17d80c8349b56E+0x603>
    6ba1:	eb 00                	jmp    6ba3 <_ZN5alloc7raw_vec19RawVec$LT$T$C$A$GT$16reserve_internal17h7ad17d80c8349b56E+0x603>
    6ba3:	48 8b 84 24 58 02 00 	mov    0x258(%rsp),%rax
    6baa:	00 
    6bab:	8a 8c 24 f6 00 00 00 	mov    0xf6(%rsp),%cl
    6bb2:	48 89 84 24 88 02 00 	mov    %rax,0x288(%rsp)
    6bb9:	00 
    6bba:	88 8c 24 90 02 00 00 	mov    %cl,0x290(%rsp)
    6bc1:	48 8b 84 24 88 02 00 	mov    0x288(%rsp),%rax
    6bc8:	00 
    6bc9:	48 85 c0             	test   %rax,%rax
    6bcc:	0f 94 c1             	sete   %cl
    6bcf:	0f b6 d1             	movzbl %cl,%edx
    6bd2:	89 d0                	mov    %edx,%eax
    6bd4:	0f 85 82 00 00 00    	jne    6c5c <_ZN5alloc7raw_vec19RawVec$LT$T$C$A$GT$16reserve_internal17h7ad17d80c8349b56E+0x6bc>
    6bda:	eb 00                	jmp    6bdc <_ZN5alloc7raw_vec19RawVec$LT$T$C$A$GT$16reserve_internal17h7ad17d80c8349b56E+0x63c>
    6bdc:	eb 67                	jmp    6c45 <_ZN5alloc7raw_vec19RawVec$LT$T$C$A$GT$16reserve_internal17h7ad17d80c8349b56E+0x6a5>
    6bde:	48 8b bc 24 a8 01 00 	mov    0x1a8(%rsp),%rdi
    6be5:	00 
    6be6:	48 8b b4 24 b0 01 00 	mov    0x1b0(%rsp),%rsi
    6bed:	00 
    6bee:	48 8d 05 5b 2b 02 00 	lea    0x22b5b(%rip),%rax        # 29750 <_ZN5alloc5alloc18handle_alloc_error17hf59328f931d332cdE>
    6bf5:	ff d0                	call   *%rax
    6bf7:	0f 0b                	ud2
    6bf9:	48 8b 84 24 a8 01 00 	mov    0x1a8(%rsp),%rax
    6c00:	00 
    6c01:	48 8b 8c 24 b0 01 00 	mov    0x1b0(%rsp),%rcx
    6c08:	00 
    6c09:	48 89 84 24 98 02 00 	mov    %rax,0x298(%rsp)
    6c10:	00 
    6c11:	48 89 8c 24 a0 02 00 	mov    %rcx,0x2a0(%rsp)
    6c18:	00 
    6c19:	48 8b 84 24 98 02 00 	mov    0x298(%rsp),%rax
    6c20:	00 
    6c21:	48 8b 8c 24 a0 02 00 	mov    0x2a0(%rsp),%rcx
    6c28:	00 
    6c29:	48 8b 94 24 d0 00 00 	mov    0xd0(%rsp),%rdx
    6c30:	00 
    6c31:	48 89 42 08          	mov    %rax,0x8(%rdx)
    6c35:	48 89 4a 10          	mov    %rcx,0x10(%rdx)
    6c39:	48 c7 02 01 00 00 00 	movq   $0x1,(%rdx)
    6c40:	e9 02 fd ff ff       	jmp    6947 <_ZN5alloc7raw_vec19RawVec$LT$T$C$A$GT$16reserve_internal17h7ad17d80c8349b56E+0x3a7>
    6c45:	0f b6 84 24 90 02 00 	movzbl 0x290(%rsp),%eax
    6c4c:	00 
    6c4d:	89 c1                	mov    %eax,%ecx
    6c4f:	f6 c1 01             	test   $0x1,%cl
    6c52:	74 a5                	je     6bf9 <_ZN5alloc7raw_vec19RawVec$LT$T$C$A$GT$16reserve_internal17h7ad17d80c8349b56E+0x659>
    6c54:	eb 00                	jmp    6c56 <_ZN5alloc7raw_vec19RawVec$LT$T$C$A$GT$16reserve_internal17h7ad17d80c8349b56E+0x6b6>
    6c56:	eb 86                	jmp    6bde <_ZN5alloc7raw_vec19RawVec$LT$T$C$A$GT$16reserve_internal17h7ad17d80c8349b56E+0x63e>
    6c58:	0f 0b                	ud2
    6c5a:	0f 0b                	ud2
    6c5c:	48 8b 84 24 88 02 00 	mov    0x288(%rsp),%rax
    6c63:	00 
    6c64:	48 89 84 24 b0 02 00 	mov    %rax,0x2b0(%rsp)
    6c6b:	00 
    6c6c:	48 8b 84 24 b0 02 00 	mov    0x2b0(%rsp),%rax
    6c73:	00 
    6c74:	48 89 84 24 80 02 00 	mov    %rax,0x280(%rsp)
    6c7b:	00 
    6c7c:	48 8b bc 24 80 02 00 	mov    0x280(%rsp),%rdi
    6c83:	00 
    6c84:	e8 d7 3f 00 00       	call   ac60 <_ZN4core3ptr8non_null16NonNull$LT$T$GT$4cast17hada00e4ff6e027d0E>
    6c89:	48 89 44 24 08       	mov    %rax,0x8(%rsp)
    6c8e:	48 8b 7c 24 08       	mov    0x8(%rsp),%rdi
    6c93:	e8 38 41 00 00       	call   add0 <_ZN50_$LT$T$u20$as$u20$core..convert..Into$LT$U$GT$$GT$4into17h0648c5a653b56d23E>
    6c98:	48 89 04 24          	mov    %rax,(%rsp)
    6c9c:	48 8b 84 24 d8 00 00 	mov    0xd8(%rsp),%rax
    6ca3:	00 
    6ca4:	48 8b 0c 24          	mov    (%rsp),%rcx
    6ca8:	48 89 08             	mov    %rcx,(%rax)
    6cab:	48 8b 84 24 00 01 00 	mov    0x100(%rsp),%rax
    6cb2:	00 
    6cb3:	48 8b 94 24 d8 00 00 	mov    0xd8(%rsp),%rdx
    6cba:	00 
    6cbb:	48 89 42 08          	mov    %rax,0x8(%rdx)
    6cbf:	48 8b 84 24 d0 00 00 	mov    0xd0(%rsp),%rax
    6cc6:	00 
    6cc7:	48 c7 00 00 00 00 00 	movq   $0x0,(%rax)
    6cce:	e9 c1 f9 ff ff       	jmp    6694 <_ZN5alloc7raw_vec19RawVec$LT$T$C$A$GT$16reserve_internal17h7ad17d80c8349b56E+0xf4>
    6cd3:	66 2e 0f 1f 84 00 00 	cs nopw 0x0(%rax,%rax,1)
    6cda:	00 00 00 
    6cdd:	0f 1f 00             	nopl   (%rax)

0000000000006ce0 <_ZN5alloc7raw_vec19RawVec$LT$T$C$A$GT$16reserve_internal17hb6cea6b900e04559E>:
    6ce0:	48 81 ec d8 02 00 00 	sub    $0x2d8,%rsp
    6ce7:	48 89 f8             	mov    %rdi,%rax
    6cea:	48 89 b4 24 d8 00 00 	mov    %rsi,0xd8(%rsp)
    6cf1:	00 
    6cf2:	48 89 94 24 e0 00 00 	mov    %rdx,0xe0(%rsp)
    6cf9:	00 
    6cfa:	48 89 8c 24 e8 00 00 	mov    %rcx,0xe8(%rsp)
    6d01:	00 
    6d02:	41 80 e0 01          	and    $0x1,%r8b
    6d06:	44 88 84 24 f6 00 00 	mov    %r8b,0xf6(%rsp)
    6d0d:	00 
    6d0e:	41 80 e1 01          	and    $0x1,%r9b
    6d12:	44 88 8c 24 f7 00 00 	mov    %r9b,0xf7(%rsp)
    6d19:	00 
    6d1a:	48 8b 8c 24 d8 00 00 	mov    0xd8(%rsp),%rcx
    6d21:	00 
    6d22:	48 89 8c 24 c0 02 00 	mov    %rcx,0x2c0(%rsp)
    6d29:	00 
    6d2a:	48 c7 84 24 d0 02 00 	movq   $0x1,0x2d0(%rsp)
    6d31:	00 01 00 00 00 
    6d36:	48 83 bc 24 d0 02 00 	cmpq   $0x0,0x2d0(%rsp)
    6d3d:	00 00 
    6d3f:	48 89 bc 24 d0 00 00 	mov    %rdi,0xd0(%rsp)
    6d46:	00 
    6d47:	48 89 84 24 c8 00 00 	mov    %rax,0xc8(%rsp)
    6d4e:	00 
    6d4f:	74 16                	je     6d67 <_ZN5alloc7raw_vec19RawVec$LT$T$C$A$GT$16reserve_internal17hb6cea6b900e04559E+0x87>
    6d51:	48 8b 84 24 c0 02 00 	mov    0x2c0(%rsp),%rax
    6d58:	00 
    6d59:	48 8b 40 08          	mov    0x8(%rax),%rax
    6d5d:	48 89 84 24 c8 02 00 	mov    %rax,0x2c8(%rsp)
    6d64:	00 
    6d65:	eb 0c                	jmp    6d73 <_ZN5alloc7raw_vec19RawVec$LT$T$C$A$GT$16reserve_internal17hb6cea6b900e04559E+0x93>
    6d67:	48 c7 84 24 c8 02 00 	movq   $0xffffffffffffffff,0x2c8(%rsp)
    6d6e:	00 ff ff ff ff 
    6d73:	48 8b bc 24 c8 02 00 	mov    0x2c8(%rsp),%rdi
    6d7a:	00 
    6d7b:	48 89 bc 24 c0 00 00 	mov    %rdi,0xc0(%rsp)
    6d82:	00 
    6d83:	48 8b b4 24 e0 00 00 	mov    0xe0(%rsp),%rsi
    6d8a:	00 
    6d8b:	48 8b bc 24 c0 00 00 	mov    0xc0(%rsp),%rdi
    6d92:	00 
    6d93:	e8 c8 4b 00 00       	call   b960 <_ZN4core3num23_$LT$impl$u20$usize$GT$12wrapping_sub17h43a5262a6b5f97e5E>
    6d98:	48 89 84 24 b8 00 00 	mov    %rax,0xb8(%rsp)
    6d9f:	00 
    6da0:	48 8b 84 24 b8 00 00 	mov    0xb8(%rsp),%rax
    6da7:	00 
    6da8:	48 3b 84 24 e8 00 00 	cmp    0xe8(%rsp),%rax
    6daf:	00 
    6db0:	73 13                	jae    6dc5 <_ZN5alloc7raw_vec19RawVec$LT$T$C$A$GT$16reserve_internal17hb6cea6b900e04559E+0xe5>
    6db2:	0f b6 84 24 f7 00 00 	movzbl 0xf7(%rsp),%eax
    6db9:	00 
    6dba:	89 c1                	mov    %eax,%ecx
    6dbc:	f6 c1 01             	test   $0x1,%cl
    6dbf:	74 4f                	je     6e10 <_ZN5alloc7raw_vec19RawVec$LT$T$C$A$GT$16reserve_internal17hb6cea6b900e04559E+0x130>
    6dc1:	eb 00                	jmp    6dc3 <_ZN5alloc7raw_vec19RawVec$LT$T$C$A$GT$16reserve_internal17hb6cea6b900e04559E+0xe3>
    6dc3:	eb 1f                	jmp    6de4 <_ZN5alloc7raw_vec19RawVec$LT$T$C$A$GT$16reserve_internal17hb6cea6b900e04559E+0x104>
    6dc5:	48 8b 84 24 d0 00 00 	mov    0xd0(%rsp),%rax
    6dcc:	00 
    6dcd:	48 c7 00 00 00 00 00 	movq   $0x0,(%rax)
    6dd4:	48 8b 84 24 c8 00 00 	mov    0xc8(%rsp),%rax
    6ddb:	00 
    6ddc:	48 81 c4 d8 02 00 00 	add    $0x2d8,%rsp
    6de3:	c3                   	ret
    6de4:	48 8b b4 24 d8 00 00 	mov    0xd8(%rsp),%rsi
    6deb:	00 
    6dec:	48 8b 94 24 e0 00 00 	mov    0xe0(%rsp),%rdx
    6df3:	00 
    6df4:	48 8b 8c 24 e8 00 00 	mov    0xe8(%rsp),%rcx
    6dfb:	00 
    6dfc:	48 8d bc 24 78 01 00 	lea    0x178(%rsp),%rdi
    6e03:	00 
    6e04:	e8 a7 07 00 00       	call   75b0 <_ZN5alloc7raw_vec19RawVec$LT$T$C$A$GT$18amortized_new_size17h91d3459e3b2e9716E>
    6e09:	e9 16 01 00 00       	jmp    6f24 <_ZN5alloc7raw_vec19RawVec$LT$T$C$A$GT$16reserve_internal17hb6cea6b900e04559E+0x244>
    6e0e:	0f 0b                	ud2
    6e10:	48 8b bc 24 e0 00 00 	mov    0xe0(%rsp),%rdi
    6e17:	00 
    6e18:	48 8b b4 24 e8 00 00 	mov    0xe8(%rsp),%rsi
    6e1f:	00 
    6e20:	e8 2b 4a 00 00       	call   b850 <_ZN4core3num23_$LT$impl$u20$usize$GT$11checked_add17h28d1784e2d208833E>
    6e25:	48 89 84 24 b0 00 00 	mov    %rax,0xb0(%rsp)
    6e2c:	00 
    6e2d:	48 89 94 24 a8 00 00 	mov    %rdx,0xa8(%rsp)
    6e34:	00 
    6e35:	48 c7 84 24 40 01 00 	movq   $0x0,0x140(%rsp)
    6e3c:	00 00 00 00 00 
    6e41:	48 8b 8c 24 38 01 00 	mov    0x138(%rsp),%rcx
    6e48:	00 
    6e49:	4c 8b 84 24 40 01 00 	mov    0x140(%rsp),%r8
    6e50:	00 
    6e51:	48 8d bc 24 20 01 00 	lea    0x120(%rsp),%rdi
    6e58:	00 
    6e59:	48 8b b4 24 b0 00 00 	mov    0xb0(%rsp),%rsi
    6e60:	00 
    6e61:	48 8b 94 24 a8 00 00 	mov    0xa8(%rsp),%rdx
    6e68:	00 
    6e69:	e8 f2 24 00 00       	call   9360 <_ZN4core6option15Option$LT$T$GT$5ok_or17h10e8738980183248E>
    6e6e:	48 8d bc 24 08 01 00 	lea    0x108(%rsp),%rdi
    6e75:	00 
    6e76:	48 8d b4 24 20 01 00 	lea    0x120(%rsp),%rsi
    6e7d:	00 
    6e7e:	e8 0d 16 00 00       	call   8490 <_ZN73_$LT$core..result..Result$LT$T$C$E$GT$$u20$as$u20$core..ops..try..Try$GT$11into_result17h60e75ce10712b7f7E>
    6e83:	48 8b 84 24 08 01 00 	mov    0x108(%rsp),%rax
    6e8a:	00 
    6e8b:	48 85 c0             	test   %rax,%rax
    6e8e:	74 6f                	je     6eff <_ZN5alloc7raw_vec19RawVec$LT$T$C$A$GT$16reserve_internal17hb6cea6b900e04559E+0x21f>
    6e90:	eb 00                	jmp    6e92 <_ZN5alloc7raw_vec19RawVec$LT$T$C$A$GT$16reserve_internal17hb6cea6b900e04559E+0x1b2>
    6e92:	eb 02                	jmp    6e96 <_ZN5alloc7raw_vec19RawVec$LT$T$C$A$GT$16reserve_internal17hb6cea6b900e04559E+0x1b6>
    6e94:	0f 0b                	ud2
    6e96:	48 8b 84 24 10 01 00 	mov    0x110(%rsp),%rax
    6e9d:	00 
    6e9e:	48 8b 8c 24 18 01 00 	mov    0x118(%rsp),%rcx
    6ea5:	00 
    6ea6:	48 89 84 24 48 01 00 	mov    %rax,0x148(%rsp)
    6ead:	00 
    6eae:	48 89 8c 24 50 01 00 	mov    %rcx,0x150(%rsp)
    6eb5:	00 
    6eb6:	48 8b bc 24 48 01 00 	mov    0x148(%rsp),%rdi
    6ebd:	00 
    6ebe:	48 8b b4 24 50 01 00 	mov    0x150(%rsp),%rsi
    6ec5:	00 
    6ec6:	e8 b5 3b 00 00       	call   aa80 <_ZN50_$LT$T$u20$as$u20$core..convert..From$LT$T$GT$$GT$4from17h621deee0c037ad14E>
    6ecb:	48 89 84 24 a0 00 00 	mov    %rax,0xa0(%rsp)
    6ed2:	00 
    6ed3:	48 89 94 24 98 00 00 	mov    %rdx,0x98(%rsp)
    6eda:	00 
    6edb:	48 8b bc 24 d0 00 00 	mov    0xd0(%rsp),%rdi
    6ee2:	00 
    6ee3:	48 8b b4 24 a0 00 00 	mov    0xa0(%rsp),%rsi
    6eea:	00 
    6eeb:	48 8b 94 24 98 00 00 	mov    0x98(%rsp),%rdx
    6ef2:	00 
    6ef3:	e8 38 15 00 00       	call   8430 <_ZN73_$LT$core..result..Result$LT$T$C$E$GT$$u20$as$u20$core..ops..try..Try$GT$10from_error17h51b2a0a500374a3cE>
    6ef8:	eb 00                	jmp    6efa <_ZN5alloc7raw_vec19RawVec$LT$T$C$A$GT$16reserve_internal17hb6cea6b900e04559E+0x21a>
    6efa:	e9 d5 fe ff ff       	jmp    6dd4 <_ZN5alloc7raw_vec19RawVec$LT$T$C$A$GT$16reserve_internal17hb6cea6b900e04559E+0xf4>
    6eff:	48 8b 84 24 10 01 00 	mov    0x110(%rsp),%rax
    6f06:	00 
    6f07:	48 89 84 24 58 01 00 	mov    %rax,0x158(%rsp)
    6f0e:	00 
    6f0f:	48 8b 84 24 58 01 00 	mov    0x158(%rsp),%rax
    6f16:	00 
    6f17:	48 89 84 24 00 01 00 	mov    %rax,0x100(%rsp)
    6f1e:	00 
    6f1f:	e9 af 00 00 00       	jmp    6fd3 <_ZN5alloc7raw_vec19RawVec$LT$T$C$A$GT$16reserve_internal17hb6cea6b900e04559E+0x2f3>
    6f24:	48 8d bc 24 60 01 00 	lea    0x160(%rsp),%rdi
    6f2b:	00 
    6f2c:	48 8d b4 24 78 01 00 	lea    0x178(%rsp),%rsi
    6f33:	00 
    6f34:	e8 57 15 00 00       	call   8490 <_ZN73_$LT$core..result..Result$LT$T$C$E$GT$$u20$as$u20$core..ops..try..Try$GT$11into_result17h60e75ce10712b7f7E>
    6f39:	48 8b 84 24 60 01 00 	mov    0x160(%rsp),%rax
    6f40:	00 
    6f41:	48 85 c0             	test   %rax,%rax
    6f44:	74 6d                	je     6fb3 <_ZN5alloc7raw_vec19RawVec$LT$T$C$A$GT$16reserve_internal17hb6cea6b900e04559E+0x2d3>
    6f46:	eb 00                	jmp    6f48 <_ZN5alloc7raw_vec19RawVec$LT$T$C$A$GT$16reserve_internal17hb6cea6b900e04559E+0x268>
    6f48:	eb 02                	jmp    6f4c <_ZN5alloc7raw_vec19RawVec$LT$T$C$A$GT$16reserve_internal17hb6cea6b900e04559E+0x26c>
    6f4a:	0f 0b                	ud2
    6f4c:	48 8b 84 24 68 01 00 	mov    0x168(%rsp),%rax
    6f53:	00 
    6f54:	48 8b 8c 24 70 01 00 	mov    0x170(%rsp),%rcx
    6f5b:	00 
    6f5c:	48 89 84 24 90 01 00 	mov    %rax,0x190(%rsp)
    6f63:	00 
    6f64:	48 89 8c 24 98 01 00 	mov    %rcx,0x198(%rsp)
    6f6b:	00 
    6f6c:	48 8b bc 24 90 01 00 	mov    0x190(%rsp),%rdi
    6f73:	00 
    6f74:	48 8b b4 24 98 01 00 	mov    0x198(%rsp),%rsi
    6f7b:	00 
    6f7c:	e8 ff 3a 00 00       	call   aa80 <_ZN50_$LT$T$u20$as$u20$core..convert..From$LT$T$GT$$GT$4from17h621deee0c037ad14E>
    6f81:	48 89 84 24 90 00 00 	mov    %rax,0x90(%rsp)
    6f88:	00 
    6f89:	48 89 94 24 88 00 00 	mov    %rdx,0x88(%rsp)
    6f90:	00 
    6f91:	48 8b bc 24 d0 00 00 	mov    0xd0(%rsp),%rdi
    6f98:	00 
    6f99:	48 8b b4 24 90 00 00 	mov    0x90(%rsp),%rsi
    6fa0:	00 
    6fa1:	48 8b 94 24 88 00 00 	mov    0x88(%rsp),%rdx
    6fa8:	00 
    6fa9:	e8 82 14 00 00       	call   8430 <_ZN73_$LT$core..result..Result$LT$T$C$E$GT$$u20$as$u20$core..ops..try..Try$GT$10from_error17h51b2a0a500374a3cE>
    6fae:	e9 47 ff ff ff       	jmp    6efa <_ZN5alloc7raw_vec19RawVec$LT$T$C$A$GT$16reserve_internal17hb6cea6b900e04559E+0x21a>
    6fb3:	48 8b 84 24 68 01 00 	mov    0x168(%rsp),%rax
    6fba:	00 
    6fbb:	48 89 84 24 a0 01 00 	mov    %rax,0x1a0(%rsp)
    6fc2:	00 
    6fc3:	48 8b 84 24 a0 01 00 	mov    0x1a0(%rsp),%rax
    6fca:	00 
    6fcb:	48 89 84 24 00 01 00 	mov    %rax,0x100(%rsp)
    6fd2:	00 
    6fd3:	48 8b bc 24 00 01 00 	mov    0x100(%rsp),%rdi
    6fda:	00 
    6fdb:	e8 30 46 00 00       	call   b610 <_ZN4core5alloc6Layout5array17h2eb6b583f10410a0E>
    6fe0:	48 89 84 24 80 00 00 	mov    %rax,0x80(%rsp)
    6fe7:	00 
    6fe8:	48 89 54 24 78       	mov    %rdx,0x78(%rsp)
    6fed:	48 8d bc 24 d0 01 00 	lea    0x1d0(%rsp),%rdi
    6ff4:	00 
    6ff5:	48 8b b4 24 80 00 00 	mov    0x80(%rsp),%rsi
    6ffc:	00 
    6ffd:	48 8b 54 24 78       	mov    0x78(%rsp),%rdx
    7002:	e8 f9 10 00 00       	call   8100 <_ZN4core6result19Result$LT$T$C$E$GT$7map_err17h0940d54ae6b60f4eE>
    7007:	48 8d bc 24 b8 01 00 	lea    0x1b8(%rsp),%rdi
    700e:	00 
    700f:	48 8d b4 24 d0 01 00 	lea    0x1d0(%rsp),%rsi
    7016:	00 
    7017:	e8 54 14 00 00       	call   8470 <_ZN73_$LT$core..result..Result$LT$T$C$E$GT$$u20$as$u20$core..ops..try..Try$GT$11into_result17h5a505f12bfc5add4E>
    701c:	48 8b 84 24 b8 01 00 	mov    0x1b8(%rsp),%rax
    7023:	00 
    7024:	48 85 c0             	test   %rax,%rax
    7027:	74 63                	je     708c <_ZN5alloc7raw_vec19RawVec$LT$T$C$A$GT$16reserve_internal17hb6cea6b900e04559E+0x3ac>
    7029:	eb 00                	jmp    702b <_ZN5alloc7raw_vec19RawVec$LT$T$C$A$GT$16reserve_internal17hb6cea6b900e04559E+0x34b>
    702b:	eb 02                	jmp    702f <_ZN5alloc7raw_vec19RawVec$LT$T$C$A$GT$16reserve_internal17hb6cea6b900e04559E+0x34f>
    702d:	0f 0b                	ud2
    702f:	48 8b 84 24 c0 01 00 	mov    0x1c0(%rsp),%rax
    7036:	00 
    7037:	48 8b 8c 24 c8 01 00 	mov    0x1c8(%rsp),%rcx
    703e:	00 
    703f:	48 89 84 24 f0 01 00 	mov    %rax,0x1f0(%rsp)
    7046:	00 
    7047:	48 89 8c 24 f8 01 00 	mov    %rcx,0x1f8(%rsp)
    704e:	00 
    704f:	48 8b bc 24 f0 01 00 	mov    0x1f0(%rsp),%rdi
    7056:	00 
    7057:	48 8b b4 24 f8 01 00 	mov    0x1f8(%rsp),%rsi
    705e:	00 
    705f:	e8 1c 3a 00 00       	call   aa80 <_ZN50_$LT$T$u20$as$u20$core..convert..From$LT$T$GT$$GT$4from17h621deee0c037ad14E>
    7064:	48 89 44 24 70       	mov    %rax,0x70(%rsp)
    7069:	48 89 54 24 68       	mov    %rdx,0x68(%rsp)
    706e:	48 8b bc 24 d0 00 00 	mov    0xd0(%rsp),%rdi
    7075:	00 
    7076:	48 8b 74 24 70       	mov    0x70(%rsp),%rsi
    707b:	48 8b 54 24 68       	mov    0x68(%rsp),%rdx
    7080:	e8 ab 13 00 00       	call   8430 <_ZN73_$LT$core..result..Result$LT$T$C$E$GT$$u20$as$u20$core..ops..try..Try$GT$10from_error17h51b2a0a500374a3cE>
    7085:	eb 00                	jmp    7087 <_ZN5alloc7raw_vec19RawVec$LT$T$C$A$GT$16reserve_internal17hb6cea6b900e04559E+0x3a7>
    7087:	e9 6e fe ff ff       	jmp    6efa <_ZN5alloc7raw_vec19RawVec$LT$T$C$A$GT$16reserve_internal17hb6cea6b900e04559E+0x21a>
    708c:	48 8b 84 24 c0 01 00 	mov    0x1c0(%rsp),%rax
    7093:	00 
    7094:	48 8b 8c 24 c8 01 00 	mov    0x1c8(%rsp),%rcx
    709b:	00 
    709c:	48 89 84 24 00 02 00 	mov    %rax,0x200(%rsp)
    70a3:	00 
    70a4:	48 89 8c 24 08 02 00 	mov    %rcx,0x208(%rsp)
    70ab:	00 
    70ac:	48 8b 84 24 00 02 00 	mov    0x200(%rsp),%rax
    70b3:	00 
    70b4:	48 8b 8c 24 08 02 00 	mov    0x208(%rsp),%rcx
    70bb:	00 
    70bc:	48 89 84 24 a8 01 00 	mov    %rax,0x1a8(%rsp)
    70c3:	00 
    70c4:	48 89 8c 24 b0 01 00 	mov    %rcx,0x1b0(%rsp)
    70cb:	00 
    70cc:	48 8d bc 24 a8 01 00 	lea    0x1a8(%rsp),%rdi
    70d3:	00 
    70d4:	e8 07 16 00 00       	call   86e0 <_ZN4core5alloc6Layout4size17h9bf1fbf5534a4197E>
    70d9:	48 89 44 24 60       	mov    %rax,0x60(%rsp)
    70de:	48 8d bc 24 28 02 00 	lea    0x228(%rsp),%rdi
    70e5:	00 
    70e6:	48 8b 74 24 60       	mov    0x60(%rsp),%rsi
    70eb:	e8 50 e1 ff ff       	call   5240 <_ZN5alloc7raw_vec11alloc_guard17h1bfa7b3fd4462045E>
    70f0:	48 8d bc 24 10 02 00 	lea    0x210(%rsp),%rdi
    70f7:	00 
    70f8:	48 8d b4 24 28 02 00 	lea    0x228(%rsp),%rsi
    70ff:	00 
    7100:	e8 cb 13 00 00       	call   84d0 <_ZN73_$LT$core..result..Result$LT$T$C$E$GT$$u20$as$u20$core..ops..try..Try$GT$11into_result17hbb7ad9f1fd9787f1E>
    7105:	48 8b 84 24 10 02 00 	mov    0x210(%rsp),%rax
    710c:	00 
    710d:	48 85 c0             	test   %rax,%rax
    7110:	74 61                	je     7173 <_ZN5alloc7raw_vec19RawVec$LT$T$C$A$GT$16reserve_internal17hb6cea6b900e04559E+0x493>
    7112:	eb 00                	jmp    7114 <_ZN5alloc7raw_vec19RawVec$LT$T$C$A$GT$16reserve_internal17hb6cea6b900e04559E+0x434>
    7114:	eb 02                	jmp    7118 <_ZN5alloc7raw_vec19RawVec$LT$T$C$A$GT$16reserve_internal17hb6cea6b900e04559E+0x438>
    7116:	0f 0b                	ud2
    7118:	48 8b 84 24 18 02 00 	mov    0x218(%rsp),%rax
    711f:	00 
    7120:	48 8b 8c 24 20 02 00 	mov    0x220(%rsp),%rcx
    7127:	00 
    7128:	48 89 84 24 40 02 00 	mov    %rax,0x240(%rsp)
    712f:	00 
    7130:	48 89 8c 24 48 02 00 	mov    %rcx,0x248(%rsp)
    7137:	00 
    7138:	48 8b bc 24 40 02 00 	mov    0x240(%rsp),%rdi
    713f:	00 
    7140:	48 8b b4 24 48 02 00 	mov    0x248(%rsp),%rsi
    7147:	00 
    7148:	e8 33 39 00 00       	call   aa80 <_ZN50_$LT$T$u20$as$u20$core..convert..From$LT$T$GT$$GT$4from17h621deee0c037ad14E>
    714d:	48 89 44 24 58       	mov    %rax,0x58(%rsp)
    7152:	48 89 54 24 50       	mov    %rdx,0x50(%rsp)
    7157:	48 8b bc 24 d0 00 00 	mov    0xd0(%rsp),%rdi
    715e:	00 
    715f:	48 8b 74 24 58       	mov    0x58(%rsp),%rsi
    7164:	48 8b 54 24 50       	mov    0x50(%rsp),%rdx
    7169:	e8 c2 12 00 00       	call   8430 <_ZN73_$LT$core..result..Result$LT$T$C$E$GT$$u20$as$u20$core..ops..try..Try$GT$10from_error17h51b2a0a500374a3cE>
    716e:	e9 14 ff ff ff       	jmp    7087 <_ZN5alloc7raw_vec19RawVec$LT$T$C$A$GT$16reserve_internal17hb6cea6b900e04559E+0x3a7>
    7173:	48 8b bc 24 d8 00 00 	mov    0xd8(%rsp),%rdi
    717a:	00 
    717b:	e8 40 f1 ff ff       	call   62c0 <_ZN5alloc7raw_vec19RawVec$LT$T$C$A$GT$14current_layout17hc47dcd3c4f665ac9E>
    7180:	48 89 94 24 68 02 00 	mov    %rdx,0x268(%rsp)
    7187:	00 
    7188:	48 89 84 24 60 02 00 	mov    %rax,0x260(%rsp)
    718f:	00 
    7190:	48 8b 84 24 68 02 00 	mov    0x268(%rsp),%rax
    7197:	00 
    7198:	48 85 c0             	test   %rax,%rax
    719b:	0f 95 c1             	setne  %cl
    719e:	0f b6 d1             	movzbl %cl,%edx
    71a1:	89 d0                	mov    %edx,%eax
    71a3:	74 04                	je     71a9 <_ZN5alloc7raw_vec19RawVec$LT$T$C$A$GT$16reserve_internal17hb6cea6b900e04559E+0x4c9>
    71a5:	eb 00                	jmp    71a7 <_ZN5alloc7raw_vec19RawVec$LT$T$C$A$GT$16reserve_internal17hb6cea6b900e04559E+0x4c7>
    71a7:	eb 2f                	jmp    71d8 <_ZN5alloc7raw_vec19RawVec$LT$T$C$A$GT$16reserve_internal17hb6cea6b900e04559E+0x4f8>
    71a9:	48 8b 84 24 d8 00 00 	mov    0xd8(%rsp),%rax
    71b0:	00 
    71b1:	48 8b b4 24 a8 01 00 	mov    0x1a8(%rsp),%rsi
    71b8:	00 
    71b9:	48 8b 94 24 b0 01 00 	mov    0x1b0(%rsp),%rdx
    71c0:	00 
    71c1:	48 89 c7             	mov    %rax,%rdi
    71c4:	e8 f7 e6 ff ff       	call   58c0 <_ZN59_$LT$alloc..alloc..Global$u20$as$u20$core..alloc..Alloc$GT$5alloc17ha6b4b6aa7e6d2807E>
    71c9:	48 89 84 24 58 02 00 	mov    %rax,0x258(%rsp)
    71d0:	00 
    71d1:	e9 0b 01 00 00       	jmp    72e1 <_ZN5alloc7raw_vec19RawVec$LT$T$C$A$GT$16reserve_internal17hb6cea6b900e04559E+0x601>
    71d6:	0f 0b                	ud2
    71d8:	31 c0                	xor    %eax,%eax
    71da:	48 8b 8c 24 60 02 00 	mov    0x260(%rsp),%rcx
    71e1:	00 
    71e2:	48 8b 94 24 68 02 00 	mov    0x268(%rsp),%rdx
    71e9:	00 
    71ea:	48 89 8c 24 70 02 00 	mov    %rcx,0x270(%rsp)
    71f1:	00 
    71f2:	48 89 94 24 78 02 00 	mov    %rdx,0x278(%rsp)
    71f9:	00 
    71fa:	a8 01                	test   $0x1,%al
    71fc:	75 02                	jne    7200 <_ZN5alloc7raw_vec19RawVec$LT$T$C$A$GT$16reserve_internal17hb6cea6b900e04559E+0x520>
    71fe:	eb 5c                	jmp    725c <_ZN5alloc7raw_vec19RawVec$LT$T$C$A$GT$16reserve_internal17hb6cea6b900e04559E+0x57c>
    7200:	48 8d bc 24 a8 01 00 	lea    0x1a8(%rsp),%rdi
    7207:	00 
    7208:	e8 e3 14 00 00       	call   86f0 <_ZN4core5alloc6Layout5align17h657c4871dbba8b80E>
    720d:	48 89 44 24 48       	mov    %rax,0x48(%rsp)
    7212:	48 8d bc 24 70 02 00 	lea    0x270(%rsp),%rdi
    7219:	00 
    721a:	e8 d1 14 00 00       	call   86f0 <_ZN4core5alloc6Layout5align17h657c4871dbba8b80E>
    721f:	48 89 44 24 40       	mov    %rax,0x40(%rsp)
    7224:	48 8b 44 24 48       	mov    0x48(%rsp),%rax
    7229:	48 8b 4c 24 40       	mov    0x40(%rsp),%rcx
    722e:	48 39 c8             	cmp    %rcx,%rax
    7231:	0f 94 c2             	sete   %dl
    7234:	80 f2 ff             	xor    $0xff,%dl
    7237:	f6 c2 01             	test   $0x1,%dl
    723a:	75 02                	jne    723e <_ZN5alloc7raw_vec19RawVec$LT$T$C$A$GT$16reserve_internal17hb6cea6b900e04559E+0x55e>
    723c:	eb 1e                	jmp    725c <_ZN5alloc7raw_vec19RawVec$LT$T$C$A$GT$16reserve_internal17hb6cea6b900e04559E+0x57c>
    723e:	48 8d 3d bb 8d 02 00 	lea    0x28dbb(%rip),%rdi        # 30000 <_fini+0xaa8>
    7245:	48 8d 15 84 7b 03 00 	lea    0x37b84(%rip),%rdx        # 3edd0 <__do_global_dtors_aux_fini_array_entry+0x8>
    724c:	48 8d 05 bd 29 02 00 	lea    0x229bd(%rip),%rax        # 29c10 <_ZN4core9panicking5panic17hb5daa85c7c72fc62E>
    7253:	be 36 00 00 00       	mov    $0x36,%esi
    7258:	ff d0                	call   *%rax
    725a:	0f 0b                	ud2
    725c:	48 8b 84 24 d8 00 00 	mov    0xd8(%rsp),%rax
    7263:	00 
    7264:	48 8b 8c 24 d8 00 00 	mov    0xd8(%rsp),%rcx
    726b:	00 
    726c:	48 8b 39             	mov    (%rcx),%rdi
    726f:	48 89 44 24 38       	mov    %rax,0x38(%rsp)
    7274:	e8 d7 38 00 00       	call   ab50 <_ZN119_$LT$core..ptr..non_null..NonNull$LT$T$GT$$u20$as$u20$core..convert..From$LT$core..ptr..unique..Unique$LT$T$GT$$GT$$GT$4from17h83e0001419513ef9E>
    7279:	48 89 44 24 30       	mov    %rax,0x30(%rsp)
    727e:	48 8b 7c 24 30       	mov    0x30(%rsp),%rdi
    7283:	e8 a8 39 00 00       	call   ac30 <_ZN4core3ptr8non_null16NonNull$LT$T$GT$4cast17h6874a9b9c28fc561E>
    7288:	48 89 44 24 28       	mov    %rax,0x28(%rsp)
    728d:	48 8b 94 24 70 02 00 	mov    0x270(%rsp),%rdx
    7294:	00 
    7295:	48 8b 8c 24 78 02 00 	mov    0x278(%rsp),%rcx
    729c:	00 
    729d:	48 8d bc 24 a8 01 00 	lea    0x1a8(%rsp),%rdi
    72a4:	00 
    72a5:	48 89 54 24 20       	mov    %rdx,0x20(%rsp)
    72aa:	48 89 4c 24 18       	mov    %rcx,0x18(%rsp)
    72af:	e8 2c 14 00 00       	call   86e0 <_ZN4core5alloc6Layout4size17h9bf1fbf5534a4197E>
    72b4:	48 89 44 24 10       	mov    %rax,0x10(%rsp)
    72b9:	48 8b 7c 24 38       	mov    0x38(%rsp),%rdi
    72be:	48 8b 74 24 28       	mov    0x28(%rsp),%rsi
    72c3:	48 8b 54 24 20       	mov    0x20(%rsp),%rdx
    72c8:	48 8b 4c 24 18       	mov    0x18(%rsp),%rcx
    72cd:	4c 8b 44 24 10       	mov    0x10(%rsp),%r8
    72d2:	e8 79 e6 ff ff       	call   5950 <_ZN59_$LT$alloc..alloc..Global$u20$as$u20$core..alloc..Alloc$GT$7realloc17hd422c367e5276958E>
    72d7:	48 89 84 24 58 02 00 	mov    %rax,0x258(%rsp)
    72de:	00 
    72df:	eb 02                	jmp    72e3 <_ZN5alloc7raw_vec19RawVec$LT$T$C$A$GT$16reserve_internal17hb6cea6b900e04559E+0x603>
    72e1:	eb 00                	jmp    72e3 <_ZN5alloc7raw_vec19RawVec$LT$T$C$A$GT$16reserve_internal17hb6cea6b900e04559E+0x603>
    72e3:	48 8b 84 24 58 02 00 	mov    0x258(%rsp),%rax
    72ea:	00 
    72eb:	8a 8c 24 f6 00 00 00 	mov    0xf6(%rsp),%cl
    72f2:	48 89 84 24 88 02 00 	mov    %rax,0x288(%rsp)
    72f9:	00 
    72fa:	88 8c 24 90 02 00 00 	mov    %cl,0x290(%rsp)
    7301:	48 8b 84 24 88 02 00 	mov    0x288(%rsp),%rax
    7308:	00 
    7309:	48 85 c0             	test   %rax,%rax
    730c:	0f 94 c1             	sete   %cl
    730f:	0f b6 d1             	movzbl %cl,%edx
    7312:	89 d0                	mov    %edx,%eax
    7314:	0f 85 82 00 00 00    	jne    739c <_ZN5alloc7raw_vec19RawVec$LT$T$C$A$GT$16reserve_internal17hb6cea6b900e04559E+0x6bc>
    731a:	eb 00                	jmp    731c <_ZN5alloc7raw_vec19RawVec$LT$T$C$A$GT$16reserve_internal17hb6cea6b900e04559E+0x63c>
    731c:	eb 67                	jmp    7385 <_ZN5alloc7raw_vec19RawVec$LT$T$C$A$GT$16reserve_internal17hb6cea6b900e04559E+0x6a5>
    731e:	48 8b bc 24 a8 01 00 	mov    0x1a8(%rsp),%rdi
    7325:	00 
    7326:	48 8b b4 24 b0 01 00 	mov    0x1b0(%rsp),%rsi
    732d:	00 
    732e:	48 8d 05 1b 24 02 00 	lea    0x2241b(%rip),%rax        # 29750 <_ZN5alloc5alloc18handle_alloc_error17hf59328f931d332cdE>
    7335:	ff d0                	call   *%rax
    7337:	0f 0b                	ud2
    7339:	48 8b 84 24 a8 01 00 	mov    0x1a8(%rsp),%rax
    7340:	00 
    7341:	48 8b 8c 24 b0 01 00 	mov    0x1b0(%rsp),%rcx
    7348:	00 
    7349:	48 89 84 24 98 02 00 	mov    %rax,0x298(%rsp)
    7350:	00 
    7351:	48 89 8c 24 a0 02 00 	mov    %rcx,0x2a0(%rsp)
    7358:	00 
    7359:	48 8b 84 24 98 02 00 	mov    0x298(%rsp),%rax
    7360:	00 
    7361:	48 8b 8c 24 a0 02 00 	mov    0x2a0(%rsp),%rcx
    7368:	00 
    7369:	48 8b 94 24 d0 00 00 	mov    0xd0(%rsp),%rdx
    7370:	00 
    7371:	48 89 42 08          	mov    %rax,0x8(%rdx)
    7375:	48 89 4a 10          	mov    %rcx,0x10(%rdx)
    7379:	48 c7 02 01 00 00 00 	movq   $0x1,(%rdx)
    7380:	e9 02 fd ff ff       	jmp    7087 <_ZN5alloc7raw_vec19RawVec$LT$T$C$A$GT$16reserve_internal17hb6cea6b900e04559E+0x3a7>
    7385:	0f b6 84 24 90 02 00 	movzbl 0x290(%rsp),%eax
    738c:	00 
    738d:	89 c1                	mov    %eax,%ecx
    738f:	f6 c1 01             	test   $0x1,%cl
    7392:	74 a5                	je     7339 <_ZN5alloc7raw_vec19RawVec$LT$T$C$A$GT$16reserve_internal17hb6cea6b900e04559E+0x659>
    7394:	eb 00                	jmp    7396 <_ZN5alloc7raw_vec19RawVec$LT$T$C$A$GT$16reserve_internal17hb6cea6b900e04559E+0x6b6>
    7396:	eb 86                	jmp    731e <_ZN5alloc7raw_vec19RawVec$LT$T$C$A$GT$16reserve_internal17hb6cea6b900e04559E+0x63e>
    7398:	0f 0b                	ud2
    739a:	0f 0b                	ud2
    739c:	48 8b 84 24 88 02 00 	mov    0x288(%rsp),%rax
    73a3:	00 
    73a4:	48 89 84 24 b0 02 00 	mov    %rax,0x2b0(%rsp)
    73ab:	00 
    73ac:	48 8b 84 24 b0 02 00 	mov    0x2b0(%rsp),%rax
    73b3:	00 
    73b4:	48 89 84 24 80 02 00 	mov    %rax,0x280(%rsp)
    73bb:	00 
    73bc:	48 8b bc 24 80 02 00 	mov    0x280(%rsp),%rdi
    73c3:	00 
    73c4:	e8 67 38 00 00       	call   ac30 <_ZN4core3ptr8non_null16NonNull$LT$T$GT$4cast17h6874a9b9c28fc561E>
    73c9:	48 89 44 24 08       	mov    %rax,0x8(%rsp)
    73ce:	48 8b 7c 24 08       	mov    0x8(%rsp),%rdi
    73d3:	e8 28 3a 00 00       	call   ae00 <_ZN50_$LT$T$u20$as$u20$core..convert..Into$LT$U$GT$$GT$4into17h0a87468e1cb1a293E>
    73d8:	48 89 04 24          	mov    %rax,(%rsp)
    73dc:	48 8b 84 24 d8 00 00 	mov    0xd8(%rsp),%rax
    73e3:	00 
    73e4:	48 8b 0c 24          	mov    (%rsp),%rcx
    73e8:	48 89 08             	mov    %rcx,(%rax)
    73eb:	48 8b 84 24 00 01 00 	mov    0x100(%rsp),%rax
    73f2:	00 
    73f3:	48 8b 94 24 d8 00 00 	mov    0xd8(%rsp),%rdx
    73fa:	00 
    73fb:	48 89 42 08          	mov    %rax,0x8(%rdx)
    73ff:	48 8b 84 24 d0 00 00 	mov    0xd0(%rsp),%rax
    7406:	00 
    7407:	48 c7 00 00 00 00 00 	movq   $0x0,(%rax)
    740e:	e9 c1 f9 ff ff       	jmp    6dd4 <_ZN5alloc7raw_vec19RawVec$LT$T$C$A$GT$16reserve_internal17hb6cea6b900e04559E+0xf4>
    7413:	66 2e 0f 1f 84 00 00 	cs nopw 0x0(%rax,%rax,1)
    741a:	00 00 00 
    741d:	0f 1f 00             	nopl   (%rax)

0000000000007420 <_ZN5alloc7raw_vec19RawVec$LT$T$C$A$GT$16reserve_internal28_$u7b$$u7b$closure$u7d$$u7d$17h290393777933f4eaE>:
    7420:	48 83 ec 20          	sub    $0x20,%rsp
    7424:	48 c7 44 24 18 00 00 	movq   $0x0,0x18(%rsp)
    742b:	00 00 
    742d:	48 8b 44 24 10       	mov    0x10(%rsp),%rax
    7432:	48 8b 54 24 18       	mov    0x18(%rsp),%rdx
    7437:	48 83 c4 20          	add    $0x20,%rsp
    743b:	c3                   	ret
    743c:	0f 1f 40 00          	nopl   0x0(%rax)

0000000000007440 <_ZN5alloc7raw_vec19RawVec$LT$T$C$A$GT$16reserve_internal28_$u7b$$u7b$closure$u7d$$u7d$17h304db4d7908f54d7E>:
    7440:	48 83 ec 20          	sub    $0x20,%rsp
    7444:	48 c7 44 24 18 00 00 	movq   $0x0,0x18(%rsp)
    744b:	00 00 
    744d:	48 8b 44 24 10       	mov    0x10(%rsp),%rax
    7452:	48 8b 54 24 18       	mov    0x18(%rsp),%rdx
    7457:	48 83 c4 20          	add    $0x20,%rsp
    745b:	c3                   	ret
    745c:	0f 1f 40 00          	nopl   0x0(%rax)

0000000000007460 <_ZN5alloc7raw_vec19RawVec$LT$T$C$A$GT$18amortized_new_size17h0c59a61c4f37407bE>:
    7460:	48 81 ec b8 00 00 00 	sub    $0xb8,%rsp
    7467:	48 89 f8             	mov    %rdi,%rax
    746a:	48 89 74 24 38       	mov    %rsi,0x38(%rsp)
    746f:	48 89 54 24 40       	mov    %rdx,0x40(%rsp)
    7474:	48 89 4c 24 48       	mov    %rcx,0x48(%rsp)
    7479:	48 8b 4c 24 40       	mov    0x40(%rsp),%rcx
    747e:	48 8b 74 24 48       	mov    0x48(%rsp),%rsi
    7483:	48 89 7c 24 30       	mov    %rdi,0x30(%rsp)
    7488:	48 89 cf             	mov    %rcx,%rdi
    748b:	48 89 44 24 28       	mov    %rax,0x28(%rsp)
    7490:	e8 bb 43 00 00       	call   b850 <_ZN4core3num23_$LT$impl$u20$usize$GT$11checked_add17h28d1784e2d208833E>
    7495:	48 89 44 24 20       	mov    %rax,0x20(%rsp)
    749a:	48 89 54 24 18       	mov    %rdx,0x18(%rsp)
    749f:	48 c7 84 24 90 00 00 	movq   $0x0,0x90(%rsp)
    74a6:	00 00 00 00 00 
    74ab:	48 8b 8c 24 88 00 00 	mov    0x88(%rsp),%rcx
    74b2:	00 
    74b3:	4c 8b 84 24 90 00 00 	mov    0x90(%rsp),%r8
    74ba:	00 
    74bb:	48 8d 7c 24 70       	lea    0x70(%rsp),%rdi
    74c0:	48 8b 74 24 20       	mov    0x20(%rsp),%rsi
    74c5:	48 8b 54 24 18       	mov    0x18(%rsp),%rdx
    74ca:	e8 91 1e 00 00       	call   9360 <_ZN4core6option15Option$LT$T$GT$5ok_or17h10e8738980183248E>
    74cf:	48 8d 7c 24 58       	lea    0x58(%rsp),%rdi
    74d4:	48 8d 74 24 70       	lea    0x70(%rsp),%rsi
    74d9:	e8 b2 0f 00 00       	call   8490 <_ZN73_$LT$core..result..Result$LT$T$C$E$GT$$u20$as$u20$core..ops..try..Try$GT$11into_result17h60e75ce10712b7f7E>
    74de:	48 8b 44 24 58       	mov    0x58(%rsp),%rax
    74e3:	48 85 c0             	test   %rax,%rax
    74e6:	74 64                	je     754c <_ZN5alloc7raw_vec19RawVec$LT$T$C$A$GT$18amortized_new_size17h0c59a61c4f37407bE+0xec>
    74e8:	eb 00                	jmp    74ea <_ZN5alloc7raw_vec19RawVec$LT$T$C$A$GT$18amortized_new_size17h0c59a61c4f37407bE+0x8a>
    74ea:	eb 02                	jmp    74ee <_ZN5alloc7raw_vec19RawVec$LT$T$C$A$GT$18amortized_new_size17h0c59a61c4f37407bE+0x8e>
    74ec:	0f 0b                	ud2
    74ee:	48 8b 44 24 60       	mov    0x60(%rsp),%rax
    74f3:	48 8b 4c 24 68       	mov    0x68(%rsp),%rcx
    74f8:	48 89 84 24 98 00 00 	mov    %rax,0x98(%rsp)
    74ff:	00 
    7500:	48 89 8c 24 a0 00 00 	mov    %rcx,0xa0(%rsp)
    7507:	00 
    7508:	48 8b bc 24 98 00 00 	mov    0x98(%rsp),%rdi
    750f:	00 
    7510:	48 8b b4 24 a0 00 00 	mov    0xa0(%rsp),%rsi
    7517:	00 
    7518:	e8 63 35 00 00       	call   aa80 <_ZN50_$LT$T$u20$as$u20$core..convert..From$LT$T$GT$$GT$4from17h621deee0c037ad14E>
    751d:	48 89 44 24 10       	mov    %rax,0x10(%rsp)
    7522:	48 89 54 24 08       	mov    %rdx,0x8(%rsp)
    7527:	eb 0d                	jmp    7536 <_ZN5alloc7raw_vec19RawVec$LT$T$C$A$GT$18amortized_new_size17h0c59a61c4f37407bE+0xd6>
    7529:	48 8b 44 24 28       	mov    0x28(%rsp),%rax
    752e:	48 81 c4 b8 00 00 00 	add    $0xb8,%rsp
    7535:	c3                   	ret
    7536:	48 8b 7c 24 30       	mov    0x30(%rsp),%rdi
    753b:	48 8b 74 24 10       	mov    0x10(%rsp),%rsi
    7540:	48 8b 54 24 08       	mov    0x8(%rsp),%rdx
    7545:	e8 b6 0e 00 00       	call   8400 <_ZN73_$LT$core..result..Result$LT$T$C$E$GT$$u20$as$u20$core..ops..try..Try$GT$10from_error17h2587b198216eca52E>
    754a:	eb dd                	jmp    7529 <_ZN5alloc7raw_vec19RawVec$LT$T$C$A$GT$18amortized_new_size17h0c59a61c4f37407bE+0xc9>
    754c:	48 8b 44 24 60       	mov    0x60(%rsp),%rax
    7551:	48 89 84 24 a8 00 00 	mov    %rax,0xa8(%rsp)
    7558:	00 
    7559:	48 8b 84 24 a8 00 00 	mov    0xa8(%rsp),%rax
    7560:	00 
    7561:	48 89 44 24 50       	mov    %rax,0x50(%rsp)
    7566:	48 8b 44 24 38       	mov    0x38(%rsp),%rax
    756b:	48 8b 40 08          	mov    0x8(%rax),%rax
    756f:	48 c1 e0 01          	shl    $0x1,%rax
    7573:	48 89 84 24 b0 00 00 	mov    %rax,0xb0(%rsp)
    757a:	00 
    757b:	48 8b bc 24 b0 00 00 	mov    0xb0(%rsp),%rdi
    7582:	00 
    7583:	48 8b 74 24 50       	mov    0x50(%rsp),%rsi
    7588:	e8 f3 32 00 00       	call   a880 <_ZN4core3cmp3max17h3a8cbd1bba3fe3a2E>
    758d:	48 89 04 24          	mov    %rax,(%rsp)
    7591:	48 8b 44 24 30       	mov    0x30(%rsp),%rax
    7596:	48 8b 0c 24          	mov    (%rsp),%rcx
    759a:	48 89 48 08          	mov    %rcx,0x8(%rax)
    759e:	48 c7 00 00 00 00 00 	movq   $0x0,(%rax)
    75a5:	eb 82                	jmp    7529 <_ZN5alloc7raw_vec19RawVec$LT$T$C$A$GT$18amortized_new_size17h0c59a61c4f37407bE+0xc9>
    75a7:	66 0f 1f 84 00 00 00 	nopw   0x0(%rax,%rax,1)
    75ae:	00 00 

00000000000075b0 <_ZN5alloc7raw_vec19RawVec$LT$T$C$A$GT$18amortized_new_size17h91d3459e3b2e9716E>:
    75b0:	48 81 ec b8 00 00 00 	sub    $0xb8,%rsp
    75b7:	48 89 f8             	mov    %rdi,%rax
    75ba:	48 89 74 24 38       	mov    %rsi,0x38(%rsp)
    75bf:	48 89 54 24 40       	mov    %rdx,0x40(%rsp)
    75c4:	48 89 4c 24 48       	mov    %rcx,0x48(%rsp)
    75c9:	48 8b 4c 24 40       	mov    0x40(%rsp),%rcx
    75ce:	48 8b 74 24 48       	mov    0x48(%rsp),%rsi
    75d3:	48 89 7c 24 30       	mov    %rdi,0x30(%rsp)
    75d8:	48 89 cf             	mov    %rcx,%rdi
    75db:	48 89 44 24 28       	mov    %rax,0x28(%rsp)
    75e0:	e8 6b 42 00 00       	call   b850 <_ZN4core3num23_$LT$impl$u20$usize$GT$11checked_add17h28d1784e2d208833E>
    75e5:	48 89 44 24 20       	mov    %rax,0x20(%rsp)
    75ea:	48 89 54 24 18       	mov    %rdx,0x18(%rsp)
    75ef:	48 c7 84 24 90 00 00 	movq   $0x0,0x90(%rsp)
    75f6:	00 00 00 00 00 
    75fb:	48 8b 8c 24 88 00 00 	mov    0x88(%rsp),%rcx
    7602:	00 
    7603:	4c 8b 84 24 90 00 00 	mov    0x90(%rsp),%r8
    760a:	00 
    760b:	48 8d 7c 24 70       	lea    0x70(%rsp),%rdi
    7610:	48 8b 74 24 20       	mov    0x20(%rsp),%rsi
    7615:	48 8b 54 24 18       	mov    0x18(%rsp),%rdx
    761a:	e8 41 1d 00 00       	call   9360 <_ZN4core6option15Option$LT$T$GT$5ok_or17h10e8738980183248E>
    761f:	48 8d 7c 24 58       	lea    0x58(%rsp),%rdi
    7624:	48 8d 74 24 70       	lea    0x70(%rsp),%rsi
    7629:	e8 62 0e 00 00       	call   8490 <_ZN73_$LT$core..result..Result$LT$T$C$E$GT$$u20$as$u20$core..ops..try..Try$GT$11into_result17h60e75ce10712b7f7E>
    762e:	48 8b 44 24 58       	mov    0x58(%rsp),%rax
    7633:	48 85 c0             	test   %rax,%rax
    7636:	74 64                	je     769c <_ZN5alloc7raw_vec19RawVec$LT$T$C$A$GT$18amortized_new_size17h91d3459e3b2e9716E+0xec>
    7638:	eb 00                	jmp    763a <_ZN5alloc7raw_vec19RawVec$LT$T$C$A$GT$18amortized_new_size17h91d3459e3b2e9716E+0x8a>
    763a:	eb 02                	jmp    763e <_ZN5alloc7raw_vec19RawVec$LT$T$C$A$GT$18amortized_new_size17h91d3459e3b2e9716E+0x8e>
    763c:	0f 0b                	ud2
    763e:	48 8b 44 24 60       	mov    0x60(%rsp),%rax
    7643:	48 8b 4c 24 68       	mov    0x68(%rsp),%rcx
    7648:	48 89 84 24 98 00 00 	mov    %rax,0x98(%rsp)
    764f:	00 
    7650:	48 89 8c 24 a0 00 00 	mov    %rcx,0xa0(%rsp)
    7657:	00 
    7658:	48 8b bc 24 98 00 00 	mov    0x98(%rsp),%rdi
    765f:	00 
    7660:	48 8b b4 24 a0 00 00 	mov    0xa0(%rsp),%rsi
    7667:	00 
    7668:	e8 13 34 00 00       	call   aa80 <_ZN50_$LT$T$u20$as$u20$core..convert..From$LT$T$GT$$GT$4from17h621deee0c037ad14E>
    766d:	48 89 44 24 10       	mov    %rax,0x10(%rsp)
    7672:	48 89 54 24 08       	mov    %rdx,0x8(%rsp)
    7677:	eb 0d                	jmp    7686 <_ZN5alloc7raw_vec19RawVec$LT$T$C$A$GT$18amortized_new_size17h91d3459e3b2e9716E+0xd6>
    7679:	48 8b 44 24 28       	mov    0x28(%rsp),%rax
    767e:	48 81 c4 b8 00 00 00 	add    $0xb8,%rsp
    7685:	c3                   	ret
    7686:	48 8b 7c 24 30       	mov    0x30(%rsp),%rdi
    768b:	48 8b 74 24 10       	mov    0x10(%rsp),%rsi
    7690:	48 8b 54 24 08       	mov    0x8(%rsp),%rdx
    7695:	e8 66 0d 00 00       	call   8400 <_ZN73_$LT$core..result..Result$LT$T$C$E$GT$$u20$as$u20$core..ops..try..Try$GT$10from_error17h2587b198216eca52E>
    769a:	eb dd                	jmp    7679 <_ZN5alloc7raw_vec19RawVec$LT$T$C$A$GT$18amortized_new_size17h91d3459e3b2e9716E+0xc9>
    769c:	48 8b 44 24 60       	mov    0x60(%rsp),%rax
    76a1:	48 89 84 24 a8 00 00 	mov    %rax,0xa8(%rsp)
    76a8:	00 
    76a9:	48 8b 84 24 a8 00 00 	mov    0xa8(%rsp),%rax
    76b0:	00 
    76b1:	48 89 44 24 50       	mov    %rax,0x50(%rsp)
    76b6:	48 8b 44 24 38       	mov    0x38(%rsp),%rax
    76bb:	48 8b 40 08          	mov    0x8(%rax),%rax
    76bf:	48 c1 e0 01          	shl    $0x1,%rax
    76c3:	48 89 84 24 b0 00 00 	mov    %rax,0xb0(%rsp)
    76ca:	00 
    76cb:	48 8b bc 24 b0 00 00 	mov    0xb0(%rsp),%rdi
    76d2:	00 
    76d3:	48 8b 74 24 50       	mov    0x50(%rsp),%rsi
    76d8:	e8 a3 31 00 00       	call   a880 <_ZN4core3cmp3max17h3a8cbd1bba3fe3a2E>
    76dd:	48 89 04 24          	mov    %rax,(%rsp)
    76e1:	48 8b 44 24 30       	mov    0x30(%rsp),%rax
    76e6:	48 8b 0c 24          	mov    (%rsp),%rcx
    76ea:	48 89 48 08          	mov    %rcx,0x8(%rax)
    76ee:	48 c7 00 00 00 00 00 	movq   $0x0,(%rax)
    76f5:	eb 82                	jmp    7679 <_ZN5alloc7raw_vec19RawVec$LT$T$C$A$GT$18amortized_new_size17h91d3459e3b2e9716E+0xc9>
    76f7:	66 0f 1f 84 00 00 00 	nopw   0x0(%rax,%rax,1)
    76fe:	00 00 

0000000000007700 <_ZN5alloc7raw_vec19RawVec$LT$T$C$A$GT$3ptr17h64da4841dfde3d57E>:
    7700:	48 83 ec 18          	sub    $0x18,%rsp
    7704:	48 89 7c 24 10       	mov    %rdi,0x10(%rsp)
    7709:	48 8b 44 24 10       	mov    0x10(%rsp),%rax
    770e:	48 8b 38             	mov    (%rax),%rdi
    7711:	e8 6a 26 00 00       	call   9d80 <_ZN4core3ptr6unique15Unique$LT$T$GT$6as_ptr17hec43aa1384587a42E>
    7716:	48 89 44 24 08       	mov    %rax,0x8(%rsp)
    771b:	48 8b 44 24 08       	mov    0x8(%rsp),%rax
    7720:	48 83 c4 18          	add    $0x18,%rsp
    7724:	c3                   	ret
    7725:	66 2e 0f 1f 84 00 00 	cs nopw 0x0(%rax,%rax,1)
    772c:	00 00 00 
    772f:	90                   	nop

0000000000007730 <_ZN5alloc7raw_vec19RawVec$LT$T$C$A$GT$3ptr17h8b6876a3518f763eE>:
    7730:	48 83 ec 18          	sub    $0x18,%rsp
    7734:	48 89 7c 24 10       	mov    %rdi,0x10(%rsp)
    7739:	48 8b 44 24 10       	mov    0x10(%rsp),%rax
    773e:	48 8b 38             	mov    (%rax),%rdi
    7741:	e8 2a 26 00 00       	call   9d70 <_ZN4core3ptr6unique15Unique$LT$T$GT$6as_ptr17h7c5366f8c0c6e2aeE>
    7746:	48 89 44 24 08       	mov    %rax,0x8(%rsp)
    774b:	48 8b 44 24 08       	mov    0x8(%rsp),%rax
    7750:	48 83 c4 18          	add    $0x18,%rsp
    7754:	c3                   	ret
    7755:	66 2e 0f 1f 84 00 00 	cs nopw 0x0(%rax,%rax,1)
    775c:	00 00 00 
    775f:	90                   	nop

0000000000007760 <_ZN5alloc7raw_vec19RawVec$LT$T$C$A$GT$7reserve17h1fa31980947419bbE>:
    7760:	48 83 ec 48          	sub    $0x48,%rsp
    7764:	48 89 7c 24 10       	mov    %rdi,0x10(%rsp)
    7769:	48 89 74 24 18       	mov    %rsi,0x18(%rsp)
    776e:	48 89 54 24 20       	mov    %rdx,0x20(%rsp)
    7773:	48 8b 74 24 10       	mov    0x10(%rsp),%rsi
    7778:	48 8b 54 24 18       	mov    0x18(%rsp),%rdx
    777d:	48 8b 4c 24 20       	mov    0x20(%rsp),%rcx
    7782:	c6 44 24 46 01       	movb   $0x1,0x46(%rsp)
    7787:	c6 44 24 47 01       	movb   $0x1,0x47(%rsp)
    778c:	8a 44 24 46          	mov    0x46(%rsp),%al
    7790:	44 8a 44 24 47       	mov    0x47(%rsp),%r8b
    7795:	24 01                	and    $0x1,%al
    7797:	41 80 e0 01          	and    $0x1,%r8b
    779b:	48 8d 7c 24 28       	lea    0x28(%rsp),%rdi
    77a0:	44 0f b6 c8          	movzbl %al,%r9d
    77a4:	44 88 44 24 0f       	mov    %r8b,0xf(%rsp)
    77a9:	45 89 c8             	mov    %r9d,%r8d
    77ac:	8a 44 24 0f          	mov    0xf(%rsp),%al
    77b0:	44 0f b6 c8          	movzbl %al,%r9d
    77b4:	e8 e7 ed ff ff       	call   65a0 <_ZN5alloc7raw_vec19RawVec$LT$T$C$A$GT$16reserve_internal17h7ad17d80c8349b56E>
    77b9:	48 8b 44 24 28       	mov    0x28(%rsp),%rax
    77be:	48 85 c0             	test   %rax,%rax
    77c1:	74 2d                	je     77f0 <_ZN5alloc7raw_vec19RawVec$LT$T$C$A$GT$7reserve17h1fa31980947419bbE+0x90>
    77c3:	eb 00                	jmp    77c5 <_ZN5alloc7raw_vec19RawVec$LT$T$C$A$GT$7reserve17h1fa31980947419bbE+0x65>
    77c5:	eb 2e                	jmp    77f5 <_ZN5alloc7raw_vec19RawVec$LT$T$C$A$GT$7reserve17h1fa31980947419bbE+0x95>
    77c7:	48 8d 05 92 1f 02 00 	lea    0x21f92(%rip),%rax        # 29760 <_ZN5alloc7raw_vec17capacity_overflow17hb992b30ca3913146E>
    77ce:	ff d0                	call   *%rax
    77d0:	0f 0b                	ud2
    77d2:	48 8d 3d 74 88 02 00 	lea    0x28874(%rip),%rdi        # 3004d <_fini+0xaf5>
    77d9:	48 8d 15 08 76 03 00 	lea    0x37608(%rip),%rdx        # 3ede8 <__do_global_dtors_aux_fini_array_entry+0x20>
    77e0:	48 8d 05 29 24 02 00 	lea    0x22429(%rip),%rax        # 29c10 <_ZN4core9panicking5panic17hb5daa85c7c72fc62E>
    77e7:	be 28 00 00 00       	mov    $0x28,%esi
    77ec:	ff d0                	call   *%rax
    77ee:	0f 0b                	ud2
    77f0:	48 83 c4 48          	add    $0x48,%rsp
    77f4:	c3                   	ret
    77f5:	48 8b 44 24 38       	mov    0x38(%rsp),%rax
    77fa:	48 85 c0             	test   %rax,%rax
    77fd:	0f 95 c1             	setne  %cl
    7800:	0f b6 d1             	movzbl %cl,%edx
    7803:	89 d0                	mov    %edx,%eax
    7805:	74 c0                	je     77c7 <_ZN5alloc7raw_vec19RawVec$LT$T$C$A$GT$7reserve17h1fa31980947419bbE+0x67>
    7807:	eb 00                	jmp    7809 <_ZN5alloc7raw_vec19RawVec$LT$T$C$A$GT$7reserve17h1fa31980947419bbE+0xa9>
    7809:	eb c7                	jmp    77d2 <_ZN5alloc7raw_vec19RawVec$LT$T$C$A$GT$7reserve17h1fa31980947419bbE+0x72>
    780b:	0f 0b                	ud2
    780d:	0f 0b                	ud2
    780f:	90                   	nop

0000000000007810 <_ZN5alloc7raw_vec19RawVec$LT$T$C$A$GT$7reserve17h61e3b7b64e3d6804E>:
    7810:	48 83 ec 48          	sub    $0x48,%rsp
    7814:	48 89 7c 24 10       	mov    %rdi,0x10(%rsp)
    7819:	48 89 74 24 18       	mov    %rsi,0x18(%rsp)
    781e:	48 89 54 24 20       	mov    %rdx,0x20(%rsp)
    7823:	48 8b 74 24 10       	mov    0x10(%rsp),%rsi
    7828:	48 8b 54 24 18       	mov    0x18(%rsp),%rdx
    782d:	48 8b 4c 24 20       	mov    0x20(%rsp),%rcx
    7832:	c6 44 24 46 01       	movb   $0x1,0x46(%rsp)
    7837:	c6 44 24 47 01       	movb   $0x1,0x47(%rsp)
    783c:	8a 44 24 46          	mov    0x46(%rsp),%al
    7840:	44 8a 44 24 47       	mov    0x47(%rsp),%r8b
    7845:	24 01                	and    $0x1,%al
    7847:	41 80 e0 01          	and    $0x1,%r8b
    784b:	48 8d 7c 24 28       	lea    0x28(%rsp),%rdi
    7850:	44 0f b6 c8          	movzbl %al,%r9d
    7854:	44 88 44 24 0f       	mov    %r8b,0xf(%rsp)
    7859:	45 89 c8             	mov    %r9d,%r8d
    785c:	8a 44 24 0f          	mov    0xf(%rsp),%al
    7860:	44 0f b6 c8          	movzbl %al,%r9d
    7864:	e8 77 f4 ff ff       	call   6ce0 <_ZN5alloc7raw_vec19RawVec$LT$T$C$A$GT$16reserve_internal17hb6cea6b900e04559E>
    7869:	48 8b 44 24 28       	mov    0x28(%rsp),%rax
    786e:	48 85 c0             	test   %rax,%rax
    7871:	74 2d                	je     78a0 <_ZN5alloc7raw_vec19RawVec$LT$T$C$A$GT$7reserve17h61e3b7b64e3d6804E+0x90>
    7873:	eb 00                	jmp    7875 <_ZN5alloc7raw_vec19RawVec$LT$T$C$A$GT$7reserve17h61e3b7b64e3d6804E+0x65>
    7875:	eb 2e                	jmp    78a5 <_ZN5alloc7raw_vec19RawVec$LT$T$C$A$GT$7reserve17h61e3b7b64e3d6804E+0x95>
    7877:	48 8d 05 e2 1e 02 00 	lea    0x21ee2(%rip),%rax        # 29760 <_ZN5alloc7raw_vec17capacity_overflow17hb992b30ca3913146E>
    787e:	ff d0                	call   *%rax
    7880:	0f 0b                	ud2
    7882:	48 8d 3d c4 87 02 00 	lea    0x287c4(%rip),%rdi        # 3004d <_fini+0xaf5>
    7889:	48 8d 15 58 75 03 00 	lea    0x37558(%rip),%rdx        # 3ede8 <__do_global_dtors_aux_fini_array_entry+0x20>
    7890:	48 8d 05 79 23 02 00 	lea    0x22379(%rip),%rax        # 29c10 <_ZN4core9panicking5panic17hb5daa85c7c72fc62E>
    7897:	be 28 00 00 00       	mov    $0x28,%esi
    789c:	ff d0                	call   *%rax
    789e:	0f 0b                	ud2
    78a0:	48 83 c4 48          	add    $0x48,%rsp
    78a4:	c3                   	ret
    78a5:	48 8b 44 24 38       	mov    0x38(%rsp),%rax
    78aa:	48 85 c0             	test   %rax,%rax
    78ad:	0f 95 c1             	setne  %cl
    78b0:	0f b6 d1             	movzbl %cl,%edx
    78b3:	89 d0                	mov    %edx,%eax
    78b5:	74 c0                	je     7877 <_ZN5alloc7raw_vec19RawVec$LT$T$C$A$GT$7reserve17h61e3b7b64e3d6804E+0x67>
    78b7:	eb 00                	jmp    78b9 <_ZN5alloc7raw_vec19RawVec$LT$T$C$A$GT$7reserve17h61e3b7b64e3d6804E+0xa9>
    78b9:	eb c7                	jmp    7882 <_ZN5alloc7raw_vec19RawVec$LT$T$C$A$GT$7reserve17h61e3b7b64e3d6804E+0x72>
    78bb:	0f 0b                	ud2
    78bd:	0f 0b                	ud2
    78bf:	90                   	nop

00000000000078c0 <_ZN77_$LT$alloc..raw_vec..RawVec$LT$T$C$A$GT$$u20$as$u20$core..ops..drop..Drop$GT$4drop17h7ebe55c791d68dbbE>:
    78c0:	50                   	push   %rax
    78c1:	48 89 3c 24          	mov    %rdi,(%rsp)
    78c5:	48 8b 3c 24          	mov    (%rsp),%rdi
    78c9:	e8 52 eb ff ff       	call   6420 <_ZN5alloc7raw_vec19RawVec$LT$T$C$A$GT$14dealloc_buffer17h12ae3814c26661a6E>
    78ce:	58                   	pop    %rax
    78cf:	c3                   	ret

00000000000078d0 <_ZN77_$LT$alloc..raw_vec..RawVec$LT$T$C$A$GT$$u20$as$u20$core..ops..drop..Drop$GT$4drop17h9aeb37b931579ea5E>:
    78d0:	50                   	push   %rax
    78d1:	48 89 3c 24          	mov    %rdi,(%rsp)
    78d5:	48 8b 3c 24          	mov    (%rsp),%rdi
    78d9:	e8 02 ec ff ff       	call   64e0 <_ZN5alloc7raw_vec19RawVec$LT$T$C$A$GT$14dealloc_buffer17h179deaf0310070ecE>
    78de:	58                   	pop    %rax
    78df:	c3                   	ret

00000000000078e0 <_ZN77_$LT$alloc..raw_vec..RawVec$LT$T$C$A$GT$$u20$as$u20$core..ops..drop..Drop$GT$4drop17hb649cbce0041472cE>:
    78e0:	50                   	push   %rax
    78e1:	48 89 3c 24          	mov    %rdi,(%rsp)
    78e5:	48 8b 3c 24          	mov    (%rsp),%rdi
    78e9:	e8 72 ea ff ff       	call   6360 <_ZN5alloc7raw_vec19RawVec$LT$T$C$A$GT$14dealloc_buffer17h0f1053bc1141f356E>
    78ee:	58                   	pop    %rax
    78ef:	c3                   	ret

00000000000078f0 <_ZN4core6result19Result$LT$T$C$E$GT$14unwrap_or_else17hcc1f8fac6a8294b4E>:
    78f0:	48 83 ec 58          	sub    $0x58,%rsp
    78f4:	c6 44 24 45 00       	movb   $0x0,0x45(%rsp)
    78f9:	c6 44 24 46 00       	movb   $0x0,0x46(%rsp)
    78fe:	c6 44 24 47 00       	movb   $0x0,0x47(%rsp)
    7903:	c6 44 24 45 01       	movb   $0x1,0x45(%rsp)
    7908:	c6 44 24 46 01       	movb   $0x1,0x46(%rsp)
    790d:	c6 44 24 47 01       	movb   $0x1,0x47(%rsp)
    7912:	48 8b 07             	mov    (%rdi),%rax
    7915:	48 85 c0             	test   %rax,%rax
    7918:	48 89 3c 24          	mov    %rdi,(%rsp)
    791c:	74 12                	je     7930 <_ZN4core6result19Result$LT$T$C$E$GT$14unwrap_or_else17hcc1f8fac6a8294b4E+0x40>
    791e:	eb 00                	jmp    7920 <_ZN4core6result19Result$LT$T$C$E$GT$14unwrap_or_else17hcc1f8fac6a8294b4E+0x30>
    7920:	eb 21                	jmp    7943 <_ZN4core6result19Result$LT$T$C$E$GT$14unwrap_or_else17hcc1f8fac6a8294b4E+0x53>
    7922:	48 8b 7c 24 48       	mov    0x48(%rsp),%rdi
    7927:	e8 c4 d7 ff ff       	call   50f0 <_Unwind_Resume@plt>
    792c:	0f 0b                	ud2
    792e:	0f 0b                	ud2
    7930:	c6 44 24 46 00       	movb   $0x0,0x46(%rsp)
    7935:	eb 53                	jmp    798a <_ZN4core6result19Result$LT$T$C$E$GT$14unwrap_or_else17hcc1f8fac6a8294b4E+0x9a>
    7937:	48 8b 04 24          	mov    (%rsp),%rax
    793b:	48 83 38 00          	cmpq   $0x0,(%rax)
    793f:	74 5c                	je     799d <_ZN4core6result19Result$LT$T$C$E$GT$14unwrap_or_else17hcc1f8fac6a8294b4E+0xad>
    7941:	eb 6f                	jmp    79b2 <_ZN4core6result19Result$LT$T$C$E$GT$14unwrap_or_else17hcc1f8fac6a8294b4E+0xc2>
    7943:	c6 44 24 45 00       	movb   $0x0,0x45(%rsp)
    7948:	48 8b 04 24          	mov    (%rsp),%rax
    794c:	48 8b 48 08          	mov    0x8(%rax),%rcx
    7950:	48 8b 50 10          	mov    0x10(%rax),%rdx
    7954:	48 89 4c 24 20       	mov    %rcx,0x20(%rsp)
    7959:	48 89 54 24 28       	mov    %rdx,0x28(%rsp)
    795e:	c6 44 24 47 00       	movb   $0x0,0x47(%rsp)
    7963:	48 8b 4c 24 20       	mov    0x20(%rsp),%rcx
    7968:	48 8b 54 24 28       	mov    0x28(%rsp),%rdx
    796d:	48 89 4c 24 30       	mov    %rcx,0x30(%rsp)
    7972:	48 89 54 24 38       	mov    %rdx,0x38(%rsp)
    7977:	48 8b 7c 24 30       	mov    0x30(%rsp),%rdi
    797c:	48 8b 74 24 38       	mov    0x38(%rsp),%rsi
    7981:	e8 ca e7 ff ff       	call   6150 <_ZN5alloc7raw_vec19RawVec$LT$T$C$A$GT$11allocate_in28_$u7b$$u7b$closure$u7d$$u7d$17h5584c1b039dee3d1E>
    7986:	eb 00                	jmp    7988 <_ZN4core6result19Result$LT$T$C$E$GT$14unwrap_or_else17hcc1f8fac6a8294b4E+0x98>
    7988:	eb 00                	jmp    798a <_ZN4core6result19Result$LT$T$C$E$GT$14unwrap_or_else17hcc1f8fac6a8294b4E+0x9a>
    798a:	f6 44 24 47 01       	testb  $0x1,0x47(%rsp)
    798f:	75 36                	jne    79c7 <_ZN4core6result19Result$LT$T$C$E$GT$14unwrap_or_else17hcc1f8fac6a8294b4E+0xd7>
    7991:	48 8b 04 24          	mov    (%rsp),%rax
    7995:	48 83 38 00          	cmpq   $0x0,(%rax)
    7999:	74 38                	je     79d3 <_ZN4core6result19Result$LT$T$C$E$GT$14unwrap_or_else17hcc1f8fac6a8294b4E+0xe3>
    799b:	eb 44                	jmp    79e1 <_ZN4core6result19Result$LT$T$C$E$GT$14unwrap_or_else17hcc1f8fac6a8294b4E+0xf1>
    799d:	f6 44 24 46 01       	testb  $0x1,0x46(%rsp)
    79a2:	0f 84 7a ff ff ff    	je     7922 <_ZN4core6result19Result$LT$T$C$E$GT$14unwrap_or_else17hcc1f8fac6a8294b4E+0x32>
    79a8:	c6 44 24 46 00       	movb   $0x0,0x46(%rsp)
    79ad:	e9 70 ff ff ff       	jmp    7922 <_ZN4core6result19Result$LT$T$C$E$GT$14unwrap_or_else17hcc1f8fac6a8294b4E+0x32>
    79b2:	f6 44 24 45 01       	testb  $0x1,0x45(%rsp)
    79b7:	0f 84 65 ff ff ff    	je     7922 <_ZN4core6result19Result$LT$T$C$E$GT$14unwrap_or_else17hcc1f8fac6a8294b4E+0x32>
    79bd:	c6 44 24 45 00       	movb   $0x0,0x45(%rsp)
    79c2:	e9 5b ff ff ff       	jmp    7922 <_ZN4core6result19Result$LT$T$C$E$GT$14unwrap_or_else17hcc1f8fac6a8294b4E+0x32>
    79c7:	c6 44 24 47 00       	movb   $0x0,0x47(%rsp)
    79cc:	eb c3                	jmp    7991 <_ZN4core6result19Result$LT$T$C$E$GT$14unwrap_or_else17hcc1f8fac6a8294b4E+0xa1>
    79ce:	48 83 c4 58          	add    $0x58,%rsp
    79d2:	c3                   	ret
    79d3:	f6 44 24 46 01       	testb  $0x1,0x46(%rsp)
    79d8:	74 f4                	je     79ce <_ZN4core6result19Result$LT$T$C$E$GT$14unwrap_or_else17hcc1f8fac6a8294b4E+0xde>
    79da:	c6 44 24 46 00       	movb   $0x0,0x46(%rsp)
    79df:	eb ed                	jmp    79ce <_ZN4core6result19Result$LT$T$C$E$GT$14unwrap_or_else17hcc1f8fac6a8294b4E+0xde>
    79e1:	f6 44 24 45 01       	testb  $0x1,0x45(%rsp)
    79e6:	74 e6                	je     79ce <_ZN4core6result19Result$LT$T$C$E$GT$14unwrap_or_else17hcc1f8fac6a8294b4E+0xde>
    79e8:	c6 44 24 45 00       	movb   $0x0,0x45(%rsp)
    79ed:	eb df                	jmp    79ce <_ZN4core6result19Result$LT$T$C$E$GT$14unwrap_or_else17hcc1f8fac6a8294b4E+0xde>
    79ef:	48 89 44 24 48       	mov    %rax,0x48(%rsp)
    79f4:	89 54 24 50          	mov    %edx,0x50(%rsp)
    79f8:	e9 3a ff ff ff       	jmp    7937 <_ZN4core6result19Result$LT$T$C$E$GT$14unwrap_or_else17hcc1f8fac6a8294b4E+0x47>
    79fd:	0f 1f 00             	nopl   (%rax)

0000000000007a00 <_ZN4core6result19Result$LT$T$C$E$GT$14unwrap_or_else17hef51292b9875757bE>:
    7a00:	48 83 ec 58          	sub    $0x58,%rsp
    7a04:	c6 44 24 45 00       	movb   $0x0,0x45(%rsp)
    7a09:	c6 44 24 46 00       	movb   $0x0,0x46(%rsp)
    7a0e:	c6 44 24 47 00       	movb   $0x0,0x47(%rsp)
    7a13:	c6 44 24 45 01       	movb   $0x1,0x45(%rsp)
    7a18:	c6 44 24 46 01       	movb   $0x1,0x46(%rsp)
    7a1d:	c6 44 24 47 01       	movb   $0x1,0x47(%rsp)
    7a22:	48 8b 07             	mov    (%rdi),%rax
    7a25:	48 85 c0             	test   %rax,%rax
    7a28:	48 89 3c 24          	mov    %rdi,(%rsp)
    7a2c:	74 12                	je     7a40 <_ZN4core6result19Result$LT$T$C$E$GT$14unwrap_or_else17hef51292b9875757bE+0x40>
    7a2e:	eb 00                	jmp    7a30 <_ZN4core6result19Result$LT$T$C$E$GT$14unwrap_or_else17hef51292b9875757bE+0x30>
    7a30:	eb 21                	jmp    7a53 <_ZN4core6result19Result$LT$T$C$E$GT$14unwrap_or_else17hef51292b9875757bE+0x53>
    7a32:	48 8b 7c 24 48       	mov    0x48(%rsp),%rdi
    7a37:	e8 b4 d6 ff ff       	call   50f0 <_Unwind_Resume@plt>
    7a3c:	0f 0b                	ud2
    7a3e:	0f 0b                	ud2
    7a40:	c6 44 24 46 00       	movb   $0x0,0x46(%rsp)
    7a45:	eb 53                	jmp    7a9a <_ZN4core6result19Result$LT$T$C$E$GT$14unwrap_or_else17hef51292b9875757bE+0x9a>
    7a47:	48 8b 04 24          	mov    (%rsp),%rax
    7a4b:	48 83 38 00          	cmpq   $0x0,(%rax)
    7a4f:	74 5c                	je     7aad <_ZN4core6result19Result$LT$T$C$E$GT$14unwrap_or_else17hef51292b9875757bE+0xad>
    7a51:	eb 6f                	jmp    7ac2 <_ZN4core6result19Result$LT$T$C$E$GT$14unwrap_or_else17hef51292b9875757bE+0xc2>
    7a53:	c6 44 24 45 00       	movb   $0x0,0x45(%rsp)
    7a58:	48 8b 04 24          	mov    (%rsp),%rax
    7a5c:	48 8b 48 08          	mov    0x8(%rax),%rcx
    7a60:	48 8b 50 10          	mov    0x10(%rax),%rdx
    7a64:	48 89 4c 24 20       	mov    %rcx,0x20(%rsp)
    7a69:	48 89 54 24 28       	mov    %rdx,0x28(%rsp)
    7a6e:	c6 44 24 47 00       	movb   $0x0,0x47(%rsp)
    7a73:	48 8b 4c 24 20       	mov    0x20(%rsp),%rcx
    7a78:	48 8b 54 24 28       	mov    0x28(%rsp),%rdx
    7a7d:	48 89 4c 24 30       	mov    %rcx,0x30(%rsp)
    7a82:	48 89 54 24 38       	mov    %rdx,0x38(%rsp)
    7a87:	48 8b 7c 24 30       	mov    0x30(%rsp),%rdi
    7a8c:	48 8b 74 24 38       	mov    0x38(%rsp),%rsi
    7a91:	e8 8a e6 ff ff       	call   6120 <_ZN5alloc7raw_vec19RawVec$LT$T$C$A$GT$11allocate_in28_$u7b$$u7b$closure$u7d$$u7d$17h2189accf9963a483E>
    7a96:	eb 00                	jmp    7a98 <_ZN4core6result19Result$LT$T$C$E$GT$14unwrap_or_else17hef51292b9875757bE+0x98>
    7a98:	eb 00                	jmp    7a9a <_ZN4core6result19Result$LT$T$C$E$GT$14unwrap_or_else17hef51292b9875757bE+0x9a>
    7a9a:	f6 44 24 47 01       	testb  $0x1,0x47(%rsp)
    7a9f:	75 36                	jne    7ad7 <_ZN4core6result19Result$LT$T$C$E$GT$14unwrap_or_else17hef51292b9875757bE+0xd7>
    7aa1:	48 8b 04 24          	mov    (%rsp),%rax
    7aa5:	48 83 38 00          	cmpq   $0x0,(%rax)
    7aa9:	74 38                	je     7ae3 <_ZN4core6result19Result$LT$T$C$E$GT$14unwrap_or_else17hef51292b9875757bE+0xe3>
    7aab:	eb 44                	jmp    7af1 <_ZN4core6result19Result$LT$T$C$E$GT$14unwrap_or_else17hef51292b9875757bE+0xf1>
    7aad:	f6 44 24 46 01       	testb  $0x1,0x46(%rsp)
    7ab2:	0f 84 7a ff ff ff    	je     7a32 <_ZN4core6result19Result$LT$T$C$E$GT$14unwrap_or_else17hef51292b9875757bE+0x32>
    7ab8:	c6 44 24 46 00       	movb   $0x0,0x46(%rsp)
    7abd:	e9 70 ff ff ff       	jmp    7a32 <_ZN4core6result19Result$LT$T$C$E$GT$14unwrap_or_else17hef51292b9875757bE+0x32>
    7ac2:	f6 44 24 45 01       	testb  $0x1,0x45(%rsp)
    7ac7:	0f 84 65 ff ff ff    	je     7a32 <_ZN4core6result19Result$LT$T$C$E$GT$14unwrap_or_else17hef51292b9875757bE+0x32>
    7acd:	c6 44 24 45 00       	movb   $0x0,0x45(%rsp)
    7ad2:	e9 5b ff ff ff       	jmp    7a32 <_ZN4core6result19Result$LT$T$C$E$GT$14unwrap_or_else17hef51292b9875757bE+0x32>
    7ad7:	c6 44 24 47 00       	movb   $0x0,0x47(%rsp)
    7adc:	eb c3                	jmp    7aa1 <_ZN4core6result19Result$LT$T$C$E$GT$14unwrap_or_else17hef51292b9875757bE+0xa1>
    7ade:	48 83 c4 58          	add    $0x58,%rsp
    7ae2:	c3                   	ret
    7ae3:	f6 44 24 46 01       	testb  $0x1,0x46(%rsp)
    7ae8:	74 f4                	je     7ade <_ZN4core6result19Result$LT$T$C$E$GT$14unwrap_or_else17hef51292b9875757bE+0xde>
    7aea:	c6 44 24 46 00       	movb   $0x0,0x46(%rsp)
    7aef:	eb ed                	jmp    7ade <_ZN4core6result19Result$LT$T$C$E$GT$14unwrap_or_else17hef51292b9875757bE+0xde>
    7af1:	f6 44 24 45 01       	testb  $0x1,0x45(%rsp)
    7af6:	74 e6                	je     7ade <_ZN4core6result19Result$LT$T$C$E$GT$14unwrap_or_else17hef51292b9875757bE+0xde>
    7af8:	c6 44 24 45 00       	movb   $0x0,0x45(%rsp)
    7afd:	eb df                	jmp    7ade <_ZN4core6result19Result$LT$T$C$E$GT$14unwrap_or_else17hef51292b9875757bE+0xde>
    7aff:	48 89 44 24 48       	mov    %rax,0x48(%rsp)
    7b04:	89 54 24 50          	mov    %edx,0x50(%rsp)
    7b08:	e9 3a ff ff ff       	jmp    7a47 <_ZN4core6result19Result$LT$T$C$E$GT$14unwrap_or_else17hef51292b9875757bE+0x47>
    7b0d:	0f 1f 00             	nopl   (%rax)

0000000000007b10 <_ZN4core6result19Result$LT$T$C$E$GT$3map17h9c29fe135744bc24E>:
    7b10:	48 81 ec a8 00 00 00 	sub    $0xa8,%rsp
    7b17:	c6 84 24 96 00 00 00 	movb   $0x0,0x96(%rsp)
    7b1e:	00 
    7b1f:	c6 84 24 95 00 00 00 	movb   $0x0,0x95(%rsp)
    7b26:	00 
    7b27:	c6 84 24 97 00 00 00 	movb   $0x0,0x97(%rsp)
    7b2e:	00 
    7b2f:	c6 84 24 95 00 00 00 	movb   $0x1,0x95(%rsp)
    7b36:	01 
    7b37:	c6 84 24 96 00 00 00 	movb   $0x1,0x96(%rsp)
    7b3e:	01 
    7b3f:	c6 84 24 97 00 00 00 	movb   $0x1,0x97(%rsp)
    7b46:	01 
    7b47:	48 8b 47 08          	mov    0x8(%rdi),%rax
    7b4b:	48 85 c0             	test   %rax,%rax
    7b4e:	0f 94 c1             	sete   %cl
    7b51:	0f b6 d1             	movzbl %cl,%edx
    7b54:	89 d0                	mov    %edx,%eax
    7b56:	48 89 7c 24 10       	mov    %rdi,0x10(%rsp)
    7b5b:	75 18                	jne    7b75 <_ZN4core6result19Result$LT$T$C$E$GT$3map17h9c29fe135744bc24E+0x65>
    7b5d:	eb 00                	jmp    7b5f <_ZN4core6result19Result$LT$T$C$E$GT$3map17h9c29fe135744bc24E+0x4f>
    7b5f:	e9 8f 00 00 00       	jmp    7bf3 <_ZN4core6result19Result$LT$T$C$E$GT$3map17h9c29fe135744bc24E+0xe3>
    7b64:	48 8b bc 24 98 00 00 	mov    0x98(%rsp),%rdi
    7b6b:	00 
    7b6c:	e8 7f d5 ff ff       	call   50f0 <_Unwind_Resume@plt>
    7b71:	0f 0b                	ud2
    7b73:	0f 0b                	ud2
    7b75:	c6 84 24 96 00 00 00 	movb   $0x0,0x96(%rsp)
    7b7c:	00 
    7b7d:	48 8b 44 24 10       	mov    0x10(%rsp),%rax
    7b82:	48 8b 48 10          	mov    0x10(%rax),%rcx
    7b86:	48 89 4c 24 40       	mov    %rcx,0x40(%rsp)
    7b8b:	0f 10 00             	movups (%rax),%xmm0
    7b8e:	0f 29 44 24 30       	movaps %xmm0,0x30(%rsp)
    7b93:	c6 84 24 97 00 00 00 	movb   $0x0,0x97(%rsp)
    7b9a:	00 
    7b9b:	48 8b 4c 24 40       	mov    0x40(%rsp),%rcx
    7ba0:	48 89 8c 24 80 00 00 	mov    %rcx,0x80(%rsp)
    7ba7:	00 
    7ba8:	0f 28 44 24 30       	movaps 0x30(%rsp),%xmm0
    7bad:	0f 29 44 24 70       	movaps %xmm0,0x70(%rsp)
    7bb2:	48 8b 8c 24 80 00 00 	mov    0x80(%rsp),%rcx
    7bb9:	00 
    7bba:	48 89 4c 24 60       	mov    %rcx,0x60(%rsp)
    7bbf:	0f 28 44 24 70       	movaps 0x70(%rsp),%xmm0
    7bc4:	0f 29 44 24 50       	movaps %xmm0,0x50(%rsp)
    7bc9:	48 8d 7c 24 50       	lea    0x50(%rsp),%rdi
    7bce:	e8 1d 3b 00 00       	call   b6f0 <_ZN4core5alloc6Layout5array28_$u7b$$u7b$closure$u7d$$u7d$17hc4765ec9616d8ea0E>
    7bd3:	48 89 54 24 08       	mov    %rdx,0x8(%rsp)
    7bd8:	48 89 04 24          	mov    %rax,(%rsp)
    7bdc:	eb 00                	jmp    7bde <_ZN4core6result19Result$LT$T$C$E$GT$3map17h9c29fe135744bc24E+0xce>
    7bde:	48 8b 04 24          	mov    (%rsp),%rax
    7be2:	48 89 44 24 20       	mov    %rax,0x20(%rsp)
    7be7:	48 8b 44 24 08       	mov    0x8(%rsp),%rax
    7bec:	48 89 44 24 28       	mov    %rax,0x28(%rsp)
    7bf1:	eb 11                	jmp    7c04 <_ZN4core6result19Result$LT$T$C$E$GT$3map17h9c29fe135744bc24E+0xf4>
    7bf3:	c6 84 24 95 00 00 00 	movb   $0x0,0x95(%rsp)
    7bfa:	00 
    7bfb:	48 c7 44 24 28 00 00 	movq   $0x0,0x28(%rsp)
    7c02:	00 00 
    7c04:	f6 84 24 97 00 00 00 	testb  $0x1,0x97(%rsp)
    7c0b:	01 
    7c0c:	75 77                	jne    7c85 <_ZN4core6result19Result$LT$T$C$E$GT$3map17h9c29fe135744bc24E+0x175>
    7c0e:	31 c0                	xor    %eax,%eax
    7c10:	89 c1                	mov    %eax,%ecx
    7c12:	48 8b 54 24 10       	mov    0x10(%rsp),%rdx
    7c17:	48 83 7a 08 00       	cmpq   $0x0,0x8(%rdx)
    7c1c:	be 01 00 00 00       	mov    $0x1,%esi
    7c21:	48 0f 46 ce          	cmovbe %rsi,%rcx
    7c25:	48 83 f9 00          	cmp    $0x0,%rcx
    7c29:	74 79                	je     7ca4 <_ZN4core6result19Result$LT$T$C$E$GT$3map17h9c29fe135744bc24E+0x194>
    7c2b:	e9 88 00 00 00       	jmp    7cb8 <_ZN4core6result19Result$LT$T$C$E$GT$3map17h9c29fe135744bc24E+0x1a8>
    7c30:	f6 84 24 96 00 00 00 	testb  $0x1,0x96(%rsp)
    7c37:	01 
    7c38:	0f 84 26 ff ff ff    	je     7b64 <_ZN4core6result19Result$LT$T$C$E$GT$3map17h9c29fe135744bc24E+0x54>
    7c3e:	c6 84 24 96 00 00 00 	movb   $0x0,0x96(%rsp)
    7c45:	00 
    7c46:	e9 19 ff ff ff       	jmp    7b64 <_ZN4core6result19Result$LT$T$C$E$GT$3map17h9c29fe135744bc24E+0x54>
    7c4b:	f6 84 24 95 00 00 00 	testb  $0x1,0x95(%rsp)
    7c52:	01 
    7c53:	0f 84 0b ff ff ff    	je     7b64 <_ZN4core6result19Result$LT$T$C$E$GT$3map17h9c29fe135744bc24E+0x54>
    7c59:	c6 84 24 95 00 00 00 	movb   $0x0,0x95(%rsp)
    7c60:	00 
    7c61:	e9 fe fe ff ff       	jmp    7b64 <_ZN4core6result19Result$LT$T$C$E$GT$3map17h9c29fe135744bc24E+0x54>
    7c66:	31 c0                	xor    %eax,%eax
    7c68:	89 c1                	mov    %eax,%ecx
    7c6a:	48 8b 54 24 10       	mov    0x10(%rsp),%rdx
    7c6f:	48 83 7a 08 00       	cmpq   $0x0,0x8(%rdx)
    7c74:	be 01 00 00 00       	mov    $0x1,%esi
    7c79:	48 0f 46 ce          	cmovbe %rsi,%rcx
    7c7d:	48 83 f9 00          	cmp    $0x0,%rcx
    7c81:	74 ad                	je     7c30 <_ZN4core6result19Result$LT$T$C$E$GT$3map17h9c29fe135744bc24E+0x120>
    7c83:	eb c6                	jmp    7c4b <_ZN4core6result19Result$LT$T$C$E$GT$3map17h9c29fe135744bc24E+0x13b>
    7c85:	c6 84 24 97 00 00 00 	movb   $0x0,0x97(%rsp)
    7c8c:	00 
    7c8d:	e9 7c ff ff ff       	jmp    7c0e <_ZN4core6result19Result$LT$T$C$E$GT$3map17h9c29fe135744bc24E+0xfe>
    7c92:	48 8b 44 24 20       	mov    0x20(%rsp),%rax
    7c97:	48 8b 54 24 28       	mov    0x28(%rsp),%rdx
    7c9c:	48 81 c4 a8 00 00 00 	add    $0xa8,%rsp
    7ca3:	c3                   	ret
    7ca4:	f6 84 24 96 00 00 00 	testb  $0x1,0x96(%rsp)
    7cab:	01 
    7cac:	74 e4                	je     7c92 <_ZN4core6result19Result$LT$T$C$E$GT$3map17h9c29fe135744bc24E+0x182>
    7cae:	c6 84 24 96 00 00 00 	movb   $0x0,0x96(%rsp)
    7cb5:	00 
    7cb6:	eb da                	jmp    7c92 <_ZN4core6result19Result$LT$T$C$E$GT$3map17h9c29fe135744bc24E+0x182>
    7cb8:	f6 84 24 95 00 00 00 	testb  $0x1,0x95(%rsp)
    7cbf:	01 
    7cc0:	74 d0                	je     7c92 <_ZN4core6result19Result$LT$T$C$E$GT$3map17h9c29fe135744bc24E+0x182>
    7cc2:	c6 84 24 95 00 00 00 	movb   $0x0,0x95(%rsp)
    7cc9:	00 
    7cca:	eb c6                	jmp    7c92 <_ZN4core6result19Result$LT$T$C$E$GT$3map17h9c29fe135744bc24E+0x182>
    7ccc:	48 89 84 24 98 00 00 	mov    %rax,0x98(%rsp)
    7cd3:	00 
    7cd4:	89 94 24 a0 00 00 00 	mov    %edx,0xa0(%rsp)
    7cdb:	eb 89                	jmp    7c66 <_ZN4core6result19Result$LT$T$C$E$GT$3map17h9c29fe135744bc24E+0x156>
    7cdd:	0f 1f 00             	nopl   (%rax)

0000000000007ce0 <_ZN4core6result19Result$LT$T$C$E$GT$3map17haea6348576db15b9E>:
    7ce0:	48 81 ec a8 00 00 00 	sub    $0xa8,%rsp
    7ce7:	c6 84 24 96 00 00 00 	movb   $0x0,0x96(%rsp)
    7cee:	00 
    7cef:	c6 84 24 95 00 00 00 	movb   $0x0,0x95(%rsp)
    7cf6:	00 
    7cf7:	c6 84 24 97 00 00 00 	movb   $0x0,0x97(%rsp)
    7cfe:	00 
    7cff:	c6 84 24 95 00 00 00 	movb   $0x1,0x95(%rsp)
    7d06:	01 
    7d07:	c6 84 24 96 00 00 00 	movb   $0x1,0x96(%rsp)
    7d0e:	01 
    7d0f:	c6 84 24 97 00 00 00 	movb   $0x1,0x97(%rsp)
    7d16:	01 
    7d17:	48 8b 47 08          	mov    0x8(%rdi),%rax
    7d1b:	48 85 c0             	test   %rax,%rax
    7d1e:	0f 94 c1             	sete   %cl
    7d21:	0f b6 d1             	movzbl %cl,%edx
    7d24:	89 d0                	mov    %edx,%eax
    7d26:	48 89 7c 24 10       	mov    %rdi,0x10(%rsp)
    7d2b:	75 18                	jne    7d45 <_ZN4core6result19Result$LT$T$C$E$GT$3map17haea6348576db15b9E+0x65>
    7d2d:	eb 00                	jmp    7d2f <_ZN4core6result19Result$LT$T$C$E$GT$3map17haea6348576db15b9E+0x4f>
    7d2f:	e9 8f 00 00 00       	jmp    7dc3 <_ZN4core6result19Result$LT$T$C$E$GT$3map17haea6348576db15b9E+0xe3>
    7d34:	48 8b bc 24 98 00 00 	mov    0x98(%rsp),%rdi
    7d3b:	00 
    7d3c:	e8 af d3 ff ff       	call   50f0 <_Unwind_Resume@plt>
    7d41:	0f 0b                	ud2
    7d43:	0f 0b                	ud2
    7d45:	c6 84 24 96 00 00 00 	movb   $0x0,0x96(%rsp)
    7d4c:	00 
    7d4d:	48 8b 44 24 10       	mov    0x10(%rsp),%rax
    7d52:	48 8b 48 10          	mov    0x10(%rax),%rcx
    7d56:	48 89 4c 24 40       	mov    %rcx,0x40(%rsp)
    7d5b:	0f 10 00             	movups (%rax),%xmm0
    7d5e:	0f 29 44 24 30       	movaps %xmm0,0x30(%rsp)
    7d63:	c6 84 24 97 00 00 00 	movb   $0x0,0x97(%rsp)
    7d6a:	00 
    7d6b:	48 8b 4c 24 40       	mov    0x40(%rsp),%rcx
    7d70:	48 89 8c 24 80 00 00 	mov    %rcx,0x80(%rsp)
    7d77:	00 
    7d78:	0f 28 44 24 30       	movaps 0x30(%rsp),%xmm0
    7d7d:	0f 29 44 24 70       	movaps %xmm0,0x70(%rsp)
    7d82:	48 8b 8c 24 80 00 00 	mov    0x80(%rsp),%rcx
    7d89:	00 
    7d8a:	48 89 4c 24 60       	mov    %rcx,0x60(%rsp)
    7d8f:	0f 28 44 24 70       	movaps 0x70(%rsp),%xmm0
    7d94:	0f 29 44 24 50       	movaps %xmm0,0x50(%rsp)
    7d99:	48 8d 7c 24 50       	lea    0x50(%rsp),%rdi
    7d9e:	e8 bd 38 00 00       	call   b660 <_ZN4core5alloc6Layout5array28_$u7b$$u7b$closure$u7d$$u7d$17h3d32597de990700bE>
    7da3:	48 89 54 24 08       	mov    %rdx,0x8(%rsp)
    7da8:	48 89 04 24          	mov    %rax,(%rsp)
    7dac:	eb 00                	jmp    7dae <_ZN4core6result19Result$LT$T$C$E$GT$3map17haea6348576db15b9E+0xce>
    7dae:	48 8b 04 24          	mov    (%rsp),%rax
    7db2:	48 89 44 24 20       	mov    %rax,0x20(%rsp)
    7db7:	48 8b 44 24 08       	mov    0x8(%rsp),%rax
    7dbc:	48 89 44 24 28       	mov    %rax,0x28(%rsp)
    7dc1:	eb 11                	jmp    7dd4 <_ZN4core6result19Result$LT$T$C$E$GT$3map17haea6348576db15b9E+0xf4>
    7dc3:	c6 84 24 95 00 00 00 	movb   $0x0,0x95(%rsp)
    7dca:	00 
    7dcb:	48 c7 44 24 28 00 00 	movq   $0x0,0x28(%rsp)
    7dd2:	00 00 
    7dd4:	f6 84 24 97 00 00 00 	testb  $0x1,0x97(%rsp)
    7ddb:	01 
    7ddc:	75 77                	jne    7e55 <_ZN4core6result19Result$LT$T$C$E$GT$3map17haea6348576db15b9E+0x175>
    7dde:	31 c0                	xor    %eax,%eax
    7de0:	89 c1                	mov    %eax,%ecx
    7de2:	48 8b 54 24 10       	mov    0x10(%rsp),%rdx
    7de7:	48 83 7a 08 00       	cmpq   $0x0,0x8(%rdx)
    7dec:	be 01 00 00 00       	mov    $0x1,%esi
    7df1:	48 0f 46 ce          	cmovbe %rsi,%rcx
    7df5:	48 83 f9 00          	cmp    $0x0,%rcx
    7df9:	74 79                	je     7e74 <_ZN4core6result19Result$LT$T$C$E$GT$3map17haea6348576db15b9E+0x194>
    7dfb:	e9 88 00 00 00       	jmp    7e88 <_ZN4core6result19Result$LT$T$C$E$GT$3map17haea6348576db15b9E+0x1a8>
    7e00:	f6 84 24 96 00 00 00 	testb  $0x1,0x96(%rsp)
    7e07:	01 
    7e08:	0f 84 26 ff ff ff    	je     7d34 <_ZN4core6result19Result$LT$T$C$E$GT$3map17haea6348576db15b9E+0x54>
    7e0e:	c6 84 24 96 00 00 00 	movb   $0x0,0x96(%rsp)
    7e15:	00 
    7e16:	e9 19 ff ff ff       	jmp    7d34 <_ZN4core6result19Result$LT$T$C$E$GT$3map17haea6348576db15b9E+0x54>
    7e1b:	f6 84 24 95 00 00 00 	testb  $0x1,0x95(%rsp)
    7e22:	01 
    7e23:	0f 84 0b ff ff ff    	je     7d34 <_ZN4core6result19Result$LT$T$C$E$GT$3map17haea6348576db15b9E+0x54>
    7e29:	c6 84 24 95 00 00 00 	movb   $0x0,0x95(%rsp)
    7e30:	00 
    7e31:	e9 fe fe ff ff       	jmp    7d34 <_ZN4core6result19Result$LT$T$C$E$GT$3map17haea6348576db15b9E+0x54>
    7e36:	31 c0                	xor    %eax,%eax
    7e38:	89 c1                	mov    %eax,%ecx
    7e3a:	48 8b 54 24 10       	mov    0x10(%rsp),%rdx
    7e3f:	48 83 7a 08 00       	cmpq   $0x0,0x8(%rdx)
    7e44:	be 01 00 00 00       	mov    $0x1,%esi
    7e49:	48 0f 46 ce          	cmovbe %rsi,%rcx
    7e4d:	48 83 f9 00          	cmp    $0x0,%rcx
    7e51:	74 ad                	je     7e00 <_ZN4core6result19Result$LT$T$C$E$GT$3map17haea6348576db15b9E+0x120>
    7e53:	eb c6                	jmp    7e1b <_ZN4core6result19Result$LT$T$C$E$GT$3map17haea6348576db15b9E+0x13b>
    7e55:	c6 84 24 97 00 00 00 	movb   $0x0,0x97(%rsp)
    7e5c:	00 
    7e5d:	e9 7c ff ff ff       	jmp    7dde <_ZN4core6result19Result$LT$T$C$E$GT$3map17haea6348576db15b9E+0xfe>
    7e62:	48 8b 44 24 20       	mov    0x20(%rsp),%rax
    7e67:	48 8b 54 24 28       	mov    0x28(%rsp),%rdx
    7e6c:	48 81 c4 a8 00 00 00 	add    $0xa8,%rsp
    7e73:	c3                   	ret
    7e74:	f6 84 24 96 00 00 00 	testb  $0x1,0x96(%rsp)
    7e7b:	01 
    7e7c:	74 e4                	je     7e62 <_ZN4core6result19Result$LT$T$C$E$GT$3map17haea6348576db15b9E+0x182>
    7e7e:	c6 84 24 96 00 00 00 	movb   $0x0,0x96(%rsp)
    7e85:	00 
    7e86:	eb da                	jmp    7e62 <_ZN4core6result19Result$LT$T$C$E$GT$3map17haea6348576db15b9E+0x182>
    7e88:	f6 84 24 95 00 00 00 	testb  $0x1,0x95(%rsp)
    7e8f:	01 
    7e90:	74 d0                	je     7e62 <_ZN4core6result19Result$LT$T$C$E$GT$3map17haea6348576db15b9E+0x182>
    7e92:	c6 84 24 95 00 00 00 	movb   $0x0,0x95(%rsp)
    7e99:	00 
    7e9a:	eb c6                	jmp    7e62 <_ZN4core6result19Result$LT$T$C$E$GT$3map17haea6348576db15b9E+0x182>
    7e9c:	48 89 84 24 98 00 00 	mov    %rax,0x98(%rsp)
    7ea3:	00 
    7ea4:	89 94 24 a0 00 00 00 	mov    %edx,0xa0(%rsp)
    7eab:	eb 89                	jmp    7e36 <_ZN4core6result19Result$LT$T$C$E$GT$3map17haea6348576db15b9E+0x156>
    7ead:	0f 1f 00             	nopl   (%rax)

0000000000007eb0 <_ZN4core6result19Result$LT$T$C$E$GT$5is_ok17h76746ed22736fb75E>:
    7eb0:	48 83 ec 10          	sub    $0x10,%rsp
    7eb4:	48 89 3c 24          	mov    %rdi,(%rsp)
    7eb8:	48 8b 04 24          	mov    (%rsp),%rax
    7ebc:	48 8b 40 08          	mov    0x8(%rax),%rax
    7ec0:	48 85 c0             	test   %rax,%rax
    7ec3:	0f 94 c1             	sete   %cl
    7ec6:	0f b6 d1             	movzbl %cl,%edx
    7ec9:	89 d0                	mov    %edx,%eax
    7ecb:	75 0b                	jne    7ed8 <_ZN4core6result19Result$LT$T$C$E$GT$5is_ok17h76746ed22736fb75E+0x28>
    7ecd:	eb 00                	jmp    7ecf <_ZN4core6result19Result$LT$T$C$E$GT$5is_ok17h76746ed22736fb75E+0x1f>
    7ecf:	c6 44 24 0f 00       	movb   $0x0,0xf(%rsp)
    7ed4:	eb 07                	jmp    7edd <_ZN4core6result19Result$LT$T$C$E$GT$5is_ok17h76746ed22736fb75E+0x2d>
    7ed6:	0f 0b                	ud2
    7ed8:	c6 44 24 0f 01       	movb   $0x1,0xf(%rsp)
    7edd:	8a 44 24 0f          	mov    0xf(%rsp),%al
    7ee1:	24 01                	and    $0x1,%al
    7ee3:	0f b6 c0             	movzbl %al,%eax
    7ee6:	48 83 c4 10          	add    $0x10,%rsp
    7eea:	c3                   	ret
    7eeb:	0f 1f 44 00 00       	nopl   0x0(%rax,%rax,1)

0000000000007ef0 <_ZN4core6result19Result$LT$T$C$E$GT$6unwrap17ha29b36fab54e5828E>:
    7ef0:	48 83 ec 78          	sub    $0x78,%rsp
    7ef4:	48 89 f8             	mov    %rdi,%rax
    7ef7:	48 8b 0e             	mov    (%rsi),%rcx
    7efa:	48 85 c9             	test   %rcx,%rcx
    7efd:	48 89 74 24 20       	mov    %rsi,0x20(%rsp)
    7f02:	48 89 7c 24 18       	mov    %rdi,0x18(%rsp)
    7f07:	48 89 44 24 10       	mov    %rax,0x10(%rsp)
    7f0c:	74 12                	je     7f20 <_ZN4core6result19Result$LT$T$C$E$GT$6unwrap17ha29b36fab54e5828E+0x30>
    7f0e:	eb 00                	jmp    7f10 <_ZN4core6result19Result$LT$T$C$E$GT$6unwrap17ha29b36fab54e5828E+0x20>
    7f10:	eb 69                	jmp    7f7b <_ZN4core6result19Result$LT$T$C$E$GT$6unwrap17ha29b36fab54e5828E+0x8b>
    7f12:	48 8b 7c 24 68       	mov    0x68(%rsp),%rdi
    7f17:	e8 d4 d1 ff ff       	call   50f0 <_Unwind_Resume@plt>
    7f1c:	0f 0b                	ud2
    7f1e:	0f 0b                	ud2
    7f20:	48 8b 44 24 20       	mov    0x20(%rsp),%rax
    7f25:	48 8b 48 08          	mov    0x8(%rax),%rcx
    7f29:	48 89 4c 24 28       	mov    %rcx,0x28(%rsp)
    7f2e:	48 8b 48 10          	mov    0x10(%rax),%rcx
    7f32:	48 89 4c 24 30       	mov    %rcx,0x30(%rsp)
    7f37:	48 8b 48 18          	mov    0x18(%rax),%rcx
    7f3b:	48 89 4c 24 38       	mov    %rcx,0x38(%rsp)
    7f40:	48 8b 4c 24 28       	mov    0x28(%rsp),%rcx
    7f45:	48 8b 54 24 18       	mov    0x18(%rsp),%rdx
    7f4a:	48 89 0a             	mov    %rcx,(%rdx)
    7f4d:	48 8b 4c 24 30       	mov    0x30(%rsp),%rcx
    7f52:	48 89 4a 08          	mov    %rcx,0x8(%rdx)
    7f56:	48 8b 4c 24 38       	mov    0x38(%rsp),%rcx
    7f5b:	48 89 4a 10          	mov    %rcx,0x10(%rdx)
    7f5f:	48 83 38 00          	cmpq   $0x0,(%rax)
    7f63:	0f 84 87 00 00 00    	je     7ff0 <_ZN4core6result19Result$LT$T$C$E$GT$6unwrap17ha29b36fab54e5828E+0x100>
    7f69:	e9 8c 00 00 00       	jmp    7ffa <_ZN4core6result19Result$LT$T$C$E$GT$6unwrap17ha29b36fab54e5828E+0x10a>
    7f6e:	48 8b 44 24 20       	mov    0x20(%rsp),%rax
    7f73:	48 83 38 00          	cmpq   $0x0,(%rax)
    7f77:	74 5f                	je     7fd8 <_ZN4core6result19Result$LT$T$C$E$GT$6unwrap17ha29b36fab54e5828E+0xe8>
    7f79:	eb 97                	jmp    7f12 <_ZN4core6result19Result$LT$T$C$E$GT$6unwrap17ha29b36fab54e5828E+0x22>
    7f7b:	48 8b 44 24 20       	mov    0x20(%rsp),%rax
    7f80:	48 8b 48 28          	mov    0x28(%rax),%rcx
    7f84:	48 89 4c 24 60       	mov    %rcx,0x60(%rsp)
    7f89:	0f 10 40 08          	movups 0x8(%rax),%xmm0
    7f8d:	0f 10 48 18          	movups 0x18(%rax),%xmm1
    7f91:	0f 29 4c 24 50       	movaps %xmm1,0x50(%rsp)
    7f96:	0f 29 44 24 40       	movaps %xmm0,0x40(%rsp)
    7f9b:	48 8d 3d d3 80 02 00 	lea    0x280d3(%rip),%rdi        # 30075 <_fini+0xb1d>
    7fa2:	48 8d 0d 57 6e 03 00 	lea    0x36e57(%rip),%rcx        # 3ee00 <__do_global_dtors_aux_fini_array_entry+0x38>
    7fa9:	48 8d 15 d0 1d 02 00 	lea    0x21dd0(%rip),%rdx        # 29d80 <_ZN4core6result13unwrap_failed17h054dd680e6fcd38bE>
    7fb0:	be 2b 00 00 00       	mov    $0x2b,%esi
    7fb5:	4c 8d 44 24 40       	lea    0x40(%rsp),%r8
    7fba:	48 89 54 24 08       	mov    %rdx,0x8(%rsp)
    7fbf:	4c 89 c2             	mov    %r8,%rdx
    7fc2:	4c 8b 44 24 08       	mov    0x8(%rsp),%r8
    7fc7:	41 ff d0             	call   *%r8
    7fca:	eb 43                	jmp    800f <_ZN4core6result19Result$LT$T$C$E$GT$6unwrap17ha29b36fab54e5828E+0x11f>
    7fcc:	48 8d 7c 24 40       	lea    0x40(%rsp),%rdi
    7fd1:	e8 8a 1b 00 00       	call   9b60 <_ZN4core3ptr18real_drop_in_place17hef825ee95c89e3dbE>
    7fd6:	eb 96                	jmp    7f6e <_ZN4core6result19Result$LT$T$C$E$GT$6unwrap17ha29b36fab54e5828E+0x7e>
    7fd8:	48 8b 44 24 20       	mov    0x20(%rsp),%rax
    7fdd:	48 05 08 00 00 00    	add    $0x8,%rax
    7fe3:	48 89 c7             	mov    %rax,%rdi
    7fe6:	e8 65 18 00 00       	call   9850 <_ZN4core3ptr18real_drop_in_place17h4d8bb75002ca5e74E>
    7feb:	e9 22 ff ff ff       	jmp    7f12 <_ZN4core6result19Result$LT$T$C$E$GT$6unwrap17ha29b36fab54e5828E+0x22>
    7ff0:	48 8b 44 24 10       	mov    0x10(%rsp),%rax
    7ff5:	48 83 c4 78          	add    $0x78,%rsp
    7ff9:	c3                   	ret
    7ffa:	48 8b 44 24 20       	mov    0x20(%rsp),%rax
    7fff:	48 05 08 00 00 00    	add    $0x8,%rax
    8005:	48 89 c7             	mov    %rax,%rdi
    8008:	e8 53 1b 00 00       	call   9b60 <_ZN4core3ptr18real_drop_in_place17hef825ee95c89e3dbE>
    800d:	eb e1                	jmp    7ff0 <_ZN4core6result19Result$LT$T$C$E$GT$6unwrap17ha29b36fab54e5828E+0x100>
    800f:	0f 0b                	ud2
    8011:	48 89 44 24 68       	mov    %rax,0x68(%rsp)
    8016:	89 54 24 70          	mov    %edx,0x70(%rsp)
    801a:	eb b0                	jmp    7fcc <_ZN4core6result19Result$LT$T$C$E$GT$6unwrap17ha29b36fab54e5828E+0xdc>
    801c:	0f 1f 40 00          	nopl   0x0(%rax)

0000000000008020 <_ZN4core6result19Result$LT$T$C$E$GT$6unwrap17hd21e12a2bf12da51E>:
    8020:	48 83 ec 48          	sub    $0x48,%rsp
    8024:	48 89 7c 24 10       	mov    %rdi,0x10(%rsp)
    8029:	48 89 74 24 18       	mov    %rsi,0x18(%rsp)
    802e:	48 8b 44 24 18       	mov    0x18(%rsp),%rax
    8033:	48 85 c0             	test   %rax,%rax
    8036:	0f 94 c1             	sete   %cl
    8039:	0f b6 d1             	movzbl %cl,%edx
    803c:	89 d0                	mov    %edx,%eax
    803e:	75 12                	jne    8052 <_ZN4core6result19Result$LT$T$C$E$GT$6unwrap17hd21e12a2bf12da51E+0x32>
    8040:	eb 00                	jmp    8042 <_ZN4core6result19Result$LT$T$C$E$GT$6unwrap17hd21e12a2bf12da51E+0x22>
    8042:	eb 6b                	jmp    80af <_ZN4core6result19Result$LT$T$C$E$GT$6unwrap17hd21e12a2bf12da51E+0x8f>
    8044:	48 8b 7c 24 38       	mov    0x38(%rsp),%rdi
    8049:	e8 a2 d0 ff ff       	call   50f0 <_Unwind_Resume@plt>
    804e:	0f 0b                	ud2
    8050:	0f 0b                	ud2
    8052:	31 c0                	xor    %eax,%eax
    8054:	89 c1                	mov    %eax,%ecx
    8056:	48 8b 54 24 10       	mov    0x10(%rsp),%rdx
    805b:	48 8b 74 24 18       	mov    0x18(%rsp),%rsi
    8060:	48 89 54 24 20       	mov    %rdx,0x20(%rsp)
    8065:	48 89 74 24 28       	mov    %rsi,0x28(%rsp)
    806a:	48 8b 44 24 20       	mov    0x20(%rsp),%rax
    806f:	48 8b 54 24 28       	mov    0x28(%rsp),%rdx
    8074:	48 83 7c 24 18 00    	cmpq   $0x0,0x18(%rsp)
    807a:	be 01 00 00 00       	mov    $0x1,%esi
    807f:	48 0f 46 ce          	cmovbe %rsi,%rcx
    8083:	48 83 f9 00          	cmp    $0x0,%rcx
    8087:	48 89 44 24 08       	mov    %rax,0x8(%rsp)
    808c:	48 89 14 24          	mov    %rdx,(%rsp)
    8090:	74 47                	je     80d9 <_ZN4core6result19Result$LT$T$C$E$GT$6unwrap17hd21e12a2bf12da51E+0xb9>
    8092:	eb 53                	jmp    80e7 <_ZN4core6result19Result$LT$T$C$E$GT$6unwrap17hd21e12a2bf12da51E+0xc7>
    8094:	31 c0                	xor    %eax,%eax
    8096:	89 c1                	mov    %eax,%ecx
    8098:	48 83 7c 24 18 00    	cmpq   $0x0,0x18(%rsp)
    809e:	ba 01 00 00 00       	mov    $0x1,%edx
    80a3:	48 0f 46 ca          	cmovbe %rdx,%rcx
    80a7:	48 83 f9 00          	cmp    $0x0,%rcx
    80ab:	74 27                	je     80d4 <_ZN4core6result19Result$LT$T$C$E$GT$6unwrap17hd21e12a2bf12da51E+0xb4>
    80ad:	eb 95                	jmp    8044 <_ZN4core6result19Result$LT$T$C$E$GT$6unwrap17hd21e12a2bf12da51E+0x24>
    80af:	48 8d 3d bf 7f 02 00 	lea    0x27fbf(%rip),%rdi        # 30075 <_fini+0xb1d>
    80b6:	48 8d 0d 63 6d 03 00 	lea    0x36d63(%rip),%rcx        # 3ee20 <__do_global_dtors_aux_fini_array_entry+0x58>
    80bd:	48 8d 05 bc 1c 02 00 	lea    0x21cbc(%rip),%rax        # 29d80 <_ZN4core6result13unwrap_failed17h054dd680e6fcd38bE>
    80c4:	be 2b 00 00 00       	mov    $0x2b,%esi
    80c9:	48 8d 54 24 30       	lea    0x30(%rsp),%rdx
    80ce:	ff d0                	call   *%rax
    80d0:	eb 17                	jmp    80e9 <_ZN4core6result19Result$LT$T$C$E$GT$6unwrap17hd21e12a2bf12da51E+0xc9>
    80d2:	eb c0                	jmp    8094 <_ZN4core6result19Result$LT$T$C$E$GT$6unwrap17hd21e12a2bf12da51E+0x74>
    80d4:	e9 6b ff ff ff       	jmp    8044 <_ZN4core6result19Result$LT$T$C$E$GT$6unwrap17hd21e12a2bf12da51E+0x24>
    80d9:	48 8b 44 24 08       	mov    0x8(%rsp),%rax
    80de:	48 8b 14 24          	mov    (%rsp),%rdx
    80e2:	48 83 c4 48          	add    $0x48,%rsp
    80e6:	c3                   	ret
    80e7:	eb f0                	jmp    80d9 <_ZN4core6result19Result$LT$T$C$E$GT$6unwrap17hd21e12a2bf12da51E+0xb9>
    80e9:	0f 0b                	ud2
    80eb:	48 89 44 24 38       	mov    %rax,0x38(%rsp)
    80f0:	89 54 24 40          	mov    %edx,0x40(%rsp)
    80f4:	eb dc                	jmp    80d2 <_ZN4core6result19Result$LT$T$C$E$GT$6unwrap17hd21e12a2bf12da51E+0xb2>
    80f6:	66 2e 0f 1f 84 00 00 	cs nopw 0x0(%rax,%rax,1)
    80fd:	00 00 00 

0000000000008100 <_ZN4core6result19Result$LT$T$C$E$GT$7map_err17h0940d54ae6b60f4eE>:
    8100:	48 83 ec 68          	sub    $0x68,%rsp
    8104:	48 89 f8             	mov    %rdi,%rax
    8107:	48 89 74 24 20       	mov    %rsi,0x20(%rsp)
    810c:	48 89 54 24 28       	mov    %rdx,0x28(%rsp)
    8111:	c6 44 24 56 00       	movb   $0x0,0x56(%rsp)
    8116:	c6 44 24 55 00       	movb   $0x0,0x55(%rsp)
    811b:	c6 44 24 57 00       	movb   $0x0,0x57(%rsp)
    8120:	c6 44 24 55 01       	movb   $0x1,0x55(%rsp)
    8125:	c6 44 24 56 01       	movb   $0x1,0x56(%rsp)
    812a:	c6 44 24 57 01       	movb   $0x1,0x57(%rsp)
    812f:	48 8b 4c 24 28       	mov    0x28(%rsp),%rcx
    8134:	48 85 c9             	test   %rcx,%rcx
    8137:	41 0f 94 c0          	sete   %r8b
    813b:	45 0f b6 c8          	movzbl %r8b,%r9d
    813f:	44 89 c9             	mov    %r9d,%ecx
    8142:	48 89 7c 24 18       	mov    %rdi,0x18(%rsp)
    8147:	48 89 44 24 10       	mov    %rax,0x10(%rsp)
    814c:	75 12                	jne    8160 <_ZN4core6result19Result$LT$T$C$E$GT$7map_err17h0940d54ae6b60f4eE+0x60>
    814e:	eb 00                	jmp    8150 <_ZN4core6result19Result$LT$T$C$E$GT$7map_err17h0940d54ae6b60f4eE+0x50>
    8150:	eb 62                	jmp    81b4 <_ZN4core6result19Result$LT$T$C$E$GT$7map_err17h0940d54ae6b60f4eE+0xb4>
    8152:	48 8b 7c 24 58       	mov    0x58(%rsp),%rdi
    8157:	e8 94 cf ff ff       	call   50f0 <_Unwind_Resume@plt>
    815c:	0f 0b                	ud2
    815e:	0f 0b                	ud2
    8160:	c6 44 24 56 00       	movb   $0x0,0x56(%rsp)
    8165:	48 8b 44 24 20       	mov    0x20(%rsp),%rax
    816a:	48 8b 4c 24 28       	mov    0x28(%rsp),%rcx
    816f:	48 89 44 24 38       	mov    %rax,0x38(%rsp)
    8174:	48 89 4c 24 40       	mov    %rcx,0x40(%rsp)
    8179:	48 8b 44 24 38       	mov    0x38(%rsp),%rax
    817e:	48 8b 4c 24 40       	mov    0x40(%rsp),%rcx
    8183:	48 8b 54 24 18       	mov    0x18(%rsp),%rdx
    8188:	48 89 42 08          	mov    %rax,0x8(%rdx)
    818c:	48 89 4a 10          	mov    %rcx,0x10(%rdx)
    8190:	48 c7 02 00 00 00 00 	movq   $0x0,(%rdx)
    8197:	eb 52                	jmp    81eb <_ZN4core6result19Result$LT$T$C$E$GT$7map_err17h0940d54ae6b60f4eE+0xeb>
    8199:	31 c0                	xor    %eax,%eax
    819b:	89 c1                	mov    %eax,%ecx
    819d:	48 83 7c 24 28 00    	cmpq   $0x0,0x28(%rsp)
    81a3:	ba 01 00 00 00       	mov    $0x1,%edx
    81a8:	48 0f 46 ca          	cmovbe %rdx,%rcx
    81ac:	48 83 f9 00          	cmp    $0x0,%rcx
    81b0:	74 5b                	je     820d <_ZN4core6result19Result$LT$T$C$E$GT$7map_err17h0940d54ae6b60f4eE+0x10d>
    81b2:	eb 6e                	jmp    8222 <_ZN4core6result19Result$LT$T$C$E$GT$7map_err17h0940d54ae6b60f4eE+0x122>
    81b4:	c6 44 24 55 00       	movb   $0x0,0x55(%rsp)
    81b9:	c6 44 24 57 00       	movb   $0x0,0x57(%rsp)
    81be:	e8 7d f2 ff ff       	call   7440 <_ZN5alloc7raw_vec19RawVec$LT$T$C$A$GT$16reserve_internal28_$u7b$$u7b$closure$u7d$$u7d$17h304db4d7908f54d7E>
    81c3:	48 89 54 24 08       	mov    %rdx,0x8(%rsp)
    81c8:	48 89 04 24          	mov    %rax,(%rsp)
    81cc:	eb 00                	jmp    81ce <_ZN4core6result19Result$LT$T$C$E$GT$7map_err17h0940d54ae6b60f4eE+0xce>
    81ce:	48 8b 44 24 18       	mov    0x18(%rsp),%rax
    81d3:	48 8b 0c 24          	mov    (%rsp),%rcx
    81d7:	48 89 48 08          	mov    %rcx,0x8(%rax)
    81db:	48 8b 4c 24 08       	mov    0x8(%rsp),%rcx
    81e0:	48 89 48 10          	mov    %rcx,0x10(%rax)
    81e4:	48 c7 00 01 00 00 00 	movq   $0x1,(%rax)
    81eb:	f6 44 24 57 01       	testb  $0x1,0x57(%rsp)
    81f0:	75 45                	jne    8237 <_ZN4core6result19Result$LT$T$C$E$GT$7map_err17h0940d54ae6b60f4eE+0x137>
    81f2:	31 c0                	xor    %eax,%eax
    81f4:	89 c1                	mov    %eax,%ecx
    81f6:	48 83 7c 24 28 00    	cmpq   $0x0,0x28(%rsp)
    81fc:	ba 01 00 00 00       	mov    $0x1,%edx
    8201:	48 0f 46 ca          	cmovbe %rdx,%rcx
    8205:	48 83 f9 00          	cmp    $0x0,%rcx
    8209:	74 3d                	je     8248 <_ZN4core6result19Result$LT$T$C$E$GT$7map_err17h0940d54ae6b60f4eE+0x148>
    820b:	eb 49                	jmp    8256 <_ZN4core6result19Result$LT$T$C$E$GT$7map_err17h0940d54ae6b60f4eE+0x156>
    820d:	f6 44 24 56 01       	testb  $0x1,0x56(%rsp)
    8212:	0f 84 3a ff ff ff    	je     8152 <_ZN4core6result19Result$LT$T$C$E$GT$7map_err17h0940d54ae6b60f4eE+0x52>
    8218:	c6 44 24 56 00       	movb   $0x0,0x56(%rsp)
    821d:	e9 30 ff ff ff       	jmp    8152 <_ZN4core6result19Result$LT$T$C$E$GT$7map_err17h0940d54ae6b60f4eE+0x52>
    8222:	f6 44 24 55 01       	testb  $0x1,0x55(%rsp)
    8227:	0f 84 25 ff ff ff    	je     8152 <_ZN4core6result19Result$LT$T$C$E$GT$7map_err17h0940d54ae6b60f4eE+0x52>
    822d:	c6 44 24 55 00       	movb   $0x0,0x55(%rsp)
    8232:	e9 1b ff ff ff       	jmp    8152 <_ZN4core6result19Result$LT$T$C$E$GT$7map_err17h0940d54ae6b60f4eE+0x52>
    8237:	c6 44 24 57 00       	movb   $0x0,0x57(%rsp)
    823c:	eb b4                	jmp    81f2 <_ZN4core6result19Result$LT$T$C$E$GT$7map_err17h0940d54ae6b60f4eE+0xf2>
    823e:	48 8b 44 24 10       	mov    0x10(%rsp),%rax
    8243:	48 83 c4 68          	add    $0x68,%rsp
    8247:	c3                   	ret
    8248:	f6 44 24 56 01       	testb  $0x1,0x56(%rsp)
    824d:	74 ef                	je     823e <_ZN4core6result19Result$LT$T$C$E$GT$7map_err17h0940d54ae6b60f4eE+0x13e>
    824f:	c6 44 24 56 00       	movb   $0x0,0x56(%rsp)
    8254:	eb e8                	jmp    823e <_ZN4core6result19Result$LT$T$C$E$GT$7map_err17h0940d54ae6b60f4eE+0x13e>
    8256:	f6 44 24 55 01       	testb  $0x1,0x55(%rsp)
    825b:	74 e1                	je     823e <_ZN4core6result19Result$LT$T$C$E$GT$7map_err17h0940d54ae6b60f4eE+0x13e>
    825d:	c6 44 24 55 00       	movb   $0x0,0x55(%rsp)
    8262:	eb da                	jmp    823e <_ZN4core6result19Result$LT$T$C$E$GT$7map_err17h0940d54ae6b60f4eE+0x13e>
    8264:	48 89 44 24 58       	mov    %rax,0x58(%rsp)
    8269:	89 54 24 60          	mov    %edx,0x60(%rsp)
    826d:	e9 27 ff ff ff       	jmp    8199 <_ZN4core6result19Result$LT$T$C$E$GT$7map_err17h0940d54ae6b60f4eE+0x99>
    8272:	66 2e 0f 1f 84 00 00 	cs nopw 0x0(%rax,%rax,1)
    8279:	00 00 00 
    827c:	0f 1f 40 00          	nopl   0x0(%rax)

0000000000008280 <_ZN4core6result19Result$LT$T$C$E$GT$7map_err17h3f47a5fee7edf6e1E>:
    8280:	48 83 ec 68          	sub    $0x68,%rsp
    8284:	48 89 f8             	mov    %rdi,%rax
    8287:	48 89 74 24 20       	mov    %rsi,0x20(%rsp)
    828c:	48 89 54 24 28       	mov    %rdx,0x28(%rsp)
    8291:	c6 44 24 56 00       	movb   $0x0,0x56(%rsp)
    8296:	c6 44 24 55 00       	movb   $0x0,0x55(%rsp)
    829b:	c6 44 24 57 00       	movb   $0x0,0x57(%rsp)
    82a0:	c6 44 24 55 01       	movb   $0x1,0x55(%rsp)
    82a5:	c6 44 24 56 01       	movb   $0x1,0x56(%rsp)
    82aa:	c6 44 24 57 01       	movb   $0x1,0x57(%rsp)
    82af:	48 8b 4c 24 28       	mov    0x28(%rsp),%rcx
    82b4:	48 85 c9             	test   %rcx,%rcx
    82b7:	41 0f 94 c0          	sete   %r8b
    82bb:	45 0f b6 c8          	movzbl %r8b,%r9d
    82bf:	44 89 c9             	mov    %r9d,%ecx
    82c2:	48 89 7c 24 18       	mov    %rdi,0x18(%rsp)
    82c7:	48 89 44 24 10       	mov    %rax,0x10(%rsp)
    82cc:	75 12                	jne    82e0 <_ZN4core6result19Result$LT$T$C$E$GT$7map_err17h3f47a5fee7edf6e1E+0x60>
    82ce:	eb 00                	jmp    82d0 <_ZN4core6result19Result$LT$T$C$E$GT$7map_err17h3f47a5fee7edf6e1E+0x50>
    82d0:	eb 62                	jmp    8334 <_ZN4core6result19Result$LT$T$C$E$GT$7map_err17h3f47a5fee7edf6e1E+0xb4>
    82d2:	48 8b 7c 24 58       	mov    0x58(%rsp),%rdi
    82d7:	e8 14 ce ff ff       	call   50f0 <_Unwind_Resume@plt>
    82dc:	0f 0b                	ud2
    82de:	0f 0b                	ud2
    82e0:	c6 44 24 56 00       	movb   $0x0,0x56(%rsp)
    82e5:	48 8b 44 24 20       	mov    0x20(%rsp),%rax
    82ea:	48 8b 4c 24 28       	mov    0x28(%rsp),%rcx
    82ef:	48 89 44 24 38       	mov    %rax,0x38(%rsp)
    82f4:	48 89 4c 24 40       	mov    %rcx,0x40(%rsp)
    82f9:	48 8b 44 24 38       	mov    0x38(%rsp),%rax
    82fe:	48 8b 4c 24 40       	mov    0x40(%rsp),%rcx
    8303:	48 8b 54 24 18       	mov    0x18(%rsp),%rdx
    8308:	48 89 42 08          	mov    %rax,0x8(%rdx)
    830c:	48 89 4a 10          	mov    %rcx,0x10(%rdx)
    8310:	48 c7 02 00 00 00 00 	movq   $0x0,(%rdx)
    8317:	eb 52                	jmp    836b <_ZN4core6result19Result$LT$T$C$E$GT$7map_err17h3f47a5fee7edf6e1E+0xeb>
    8319:	31 c0                	xor    %eax,%eax
    831b:	89 c1                	mov    %eax,%ecx
    831d:	48 83 7c 24 28 00    	cmpq   $0x0,0x28(%rsp)
    8323:	ba 01 00 00 00       	mov    $0x1,%edx
    8328:	48 0f 46 ca          	cmovbe %rdx,%rcx
    832c:	48 83 f9 00          	cmp    $0x0,%rcx
    8330:	74 5b                	je     838d <_ZN4core6result19Result$LT$T$C$E$GT$7map_err17h3f47a5fee7edf6e1E+0x10d>
    8332:	eb 6e                	jmp    83a2 <_ZN4core6result19Result$LT$T$C$E$GT$7map_err17h3f47a5fee7edf6e1E+0x122>
    8334:	c6 44 24 55 00       	movb   $0x0,0x55(%rsp)
    8339:	c6 44 24 57 00       	movb   $0x0,0x57(%rsp)
    833e:	e8 dd f0 ff ff       	call   7420 <_ZN5alloc7raw_vec19RawVec$LT$T$C$A$GT$16reserve_internal28_$u7b$$u7b$closure$u7d$$u7d$17h290393777933f4eaE>
    8343:	48 89 54 24 08       	mov    %rdx,0x8(%rsp)
    8348:	48 89 04 24          	mov    %rax,(%rsp)
    834c:	eb 00                	jmp    834e <_ZN4core6result19Result$LT$T$C$E$GT$7map_err17h3f47a5fee7edf6e1E+0xce>
    834e:	48 8b 44 24 18       	mov    0x18(%rsp),%rax
    8353:	48 8b 0c 24          	mov    (%rsp),%rcx
    8357:	48 89 48 08          	mov    %rcx,0x8(%rax)
    835b:	48 8b 4c 24 08       	mov    0x8(%rsp),%rcx
    8360:	48 89 48 10          	mov    %rcx,0x10(%rax)
    8364:	48 c7 00 01 00 00 00 	movq   $0x1,(%rax)
    836b:	f6 44 24 57 01       	testb  $0x1,0x57(%rsp)
    8370:	75 45                	jne    83b7 <_ZN4core6result19Result$LT$T$C$E$GT$7map_err17h3f47a5fee7edf6e1E+0x137>
    8372:	31 c0                	xor    %eax,%eax
    8374:	89 c1                	mov    %eax,%ecx
    8376:	48 83 7c 24 28 00    	cmpq   $0x0,0x28(%rsp)
    837c:	ba 01 00 00 00       	mov    $0x1,%edx
    8381:	48 0f 46 ca          	cmovbe %rdx,%rcx
    8385:	48 83 f9 00          	cmp    $0x0,%rcx
    8389:	74 3d                	je     83c8 <_ZN4core6result19Result$LT$T$C$E$GT$7map_err17h3f47a5fee7edf6e1E+0x148>
    838b:	eb 49                	jmp    83d6 <_ZN4core6result19Result$LT$T$C$E$GT$7map_err17h3f47a5fee7edf6e1E+0x156>
    838d:	f6 44 24 56 01       	testb  $0x1,0x56(%rsp)
    8392:	0f 84 3a ff ff ff    	je     82d2 <_ZN4core6result19Result$LT$T$C$E$GT$7map_err17h3f47a5fee7edf6e1E+0x52>
    8398:	c6 44 24 56 00       	movb   $0x0,0x56(%rsp)
    839d:	e9 30 ff ff ff       	jmp    82d2 <_ZN4core6result19Result$LT$T$C$E$GT$7map_err17h3f47a5fee7edf6e1E+0x52>
    83a2:	f6 44 24 55 01       	testb  $0x1,0x55(%rsp)
    83a7:	0f 84 25 ff ff ff    	je     82d2 <_ZN4core6result19Result$LT$T$C$E$GT$7map_err17h3f47a5fee7edf6e1E+0x52>
    83ad:	c6 44 24 55 00       	movb   $0x0,0x55(%rsp)
    83b2:	e9 1b ff ff ff       	jmp    82d2 <_ZN4core6result19Result$LT$T$C$E$GT$7map_err17h3f47a5fee7edf6e1E+0x52>
    83b7:	c6 44 24 57 00       	movb   $0x0,0x57(%rsp)
    83bc:	eb b4                	jmp    8372 <_ZN4core6result19Result$LT$T$C$E$GT$7map_err17h3f47a5fee7edf6e1E+0xf2>
    83be:	48 8b 44 24 10       	mov    0x10(%rsp),%rax
    83c3:	48 83 c4 68          	add    $0x68,%rsp
    83c7:	c3                   	ret
    83c8:	f6 44 24 56 01       	testb  $0x1,0x56(%rsp)
    83cd:	74 ef                	je     83be <_ZN4core6result19Result$LT$T$C$E$GT$7map_err17h3f47a5fee7edf6e1E+0x13e>
    83cf:	c6 44 24 56 00       	movb   $0x0,0x56(%rsp)
    83d4:	eb e8                	jmp    83be <_ZN4core6result19Result$LT$T$C$E$GT$7map_err17h3f47a5fee7edf6e1E+0x13e>
    83d6:	f6 44 24 55 01       	testb  $0x1,0x55(%rsp)
    83db:	74 e1                	je     83be <_ZN4core6result19Result$LT$T$C$E$GT$7map_err17h3f47a5fee7edf6e1E+0x13e>
    83dd:	c6 44 24 55 00       	movb   $0x0,0x55(%rsp)
    83e2:	eb da                	jmp    83be <_ZN4core6result19Result$LT$T$C$E$GT$7map_err17h3f47a5fee7edf6e1E+0x13e>
    83e4:	48 89 44 24 58       	mov    %rax,0x58(%rsp)
    83e9:	89 54 24 60          	mov    %edx,0x60(%rsp)
    83ed:	e9 27 ff ff ff       	jmp    8319 <_ZN4core6result19Result$LT$T$C$E$GT$7map_err17h3f47a5fee7edf6e1E+0x99>
    83f2:	66 2e 0f 1f 84 00 00 	cs nopw 0x0(%rax,%rax,1)
    83f9:	00 00 00 
    83fc:	0f 1f 40 00          	nopl   0x0(%rax)

0000000000008400 <_ZN73_$LT$core..result..Result$LT$T$C$E$GT$$u20$as$u20$core..ops..try..Try$GT$10from_error17h2587b198216eca52E>:
    8400:	48 83 ec 10          	sub    $0x10,%rsp
    8404:	48 89 f8             	mov    %rdi,%rax
    8407:	48 89 34 24          	mov    %rsi,(%rsp)
    840b:	48 89 54 24 08       	mov    %rdx,0x8(%rsp)
    8410:	48 8b 0c 24          	mov    (%rsp),%rcx
    8414:	48 8b 54 24 08       	mov    0x8(%rsp),%rdx
    8419:	48 89 4f 08          	mov    %rcx,0x8(%rdi)
    841d:	48 89 57 10          	mov    %rdx,0x10(%rdi)
    8421:	48 c7 07 01 00 00 00 	movq   $0x1,(%rdi)
    8428:	48 83 c4 10          	add    $0x10,%rsp
    842c:	c3                   	ret
    842d:	0f 1f 00             	nopl   (%rax)

0000000000008430 <_ZN73_$LT$core..result..Result$LT$T$C$E$GT$$u20$as$u20$core..ops..try..Try$GT$10from_error17h51b2a0a500374a3cE>:
    8430:	48 83 ec 10          	sub    $0x10,%rsp
    8434:	48 89 f8             	mov    %rdi,%rax
    8437:	48 89 34 24          	mov    %rsi,(%rsp)
    843b:	48 89 54 24 08       	mov    %rdx,0x8(%rsp)
    8440:	48 8b 0c 24          	mov    (%rsp),%rcx
    8444:	48 8b 54 24 08       	mov    0x8(%rsp),%rdx
    8449:	48 89 4f 08          	mov    %rcx,0x8(%rdi)
    844d:	48 89 57 10          	mov    %rdx,0x10(%rdi)
    8451:	48 c7 07 01 00 00 00 	movq   $0x1,(%rdi)
    8458:	48 83 c4 10          	add    $0x10,%rsp
    845c:	c3                   	ret
    845d:	0f 1f 00             	nopl   (%rax)

0000000000008460 <_ZN73_$LT$core..result..Result$LT$T$C$E$GT$$u20$as$u20$core..ops..try..Try$GT$10from_error17h9a0126687860ba3dE>:
    8460:	50                   	push   %rax
    8461:	48 89 f8             	mov    %rdi,%rax
    8464:	48 c7 47 08 00 00 00 	movq   $0x0,0x8(%rdi)
    846b:	00 
    846c:	59                   	pop    %rcx
    846d:	c3                   	ret
    846e:	66 90                	xchg   %ax,%ax

0000000000008470 <_ZN73_$LT$core..result..Result$LT$T$C$E$GT$$u20$as$u20$core..ops..try..Try$GT$11into_result17h5a505f12bfc5add4E>:
    8470:	48 89 f8             	mov    %rdi,%rax
    8473:	48 8b 0e             	mov    (%rsi),%rcx
    8476:	48 89 0f             	mov    %rcx,(%rdi)
    8479:	48 8b 4e 08          	mov    0x8(%rsi),%rcx
    847d:	48 89 4f 08          	mov    %rcx,0x8(%rdi)
    8481:	48 8b 4e 10          	mov    0x10(%rsi),%rcx
    8485:	48 89 4f 10          	mov    %rcx,0x10(%rdi)
    8489:	c3                   	ret
    848a:	66 0f 1f 44 00 00    	nopw   0x0(%rax,%rax,1)

0000000000008490 <_ZN73_$LT$core..result..Result$LT$T$C$E$GT$$u20$as$u20$core..ops..try..Try$GT$11into_result17h60e75ce10712b7f7E>:
    8490:	48 89 f8             	mov    %rdi,%rax
    8493:	48 8b 0e             	mov    (%rsi),%rcx
    8496:	48 89 0f             	mov    %rcx,(%rdi)
    8499:	48 8b 4e 08          	mov    0x8(%rsi),%rcx
    849d:	48 89 4f 08          	mov    %rcx,0x8(%rdi)
    84a1:	48 8b 4e 10          	mov    0x10(%rsi),%rcx
    84a5:	48 89 4f 10          	mov    %rcx,0x10(%rdi)
    84a9:	c3                   	ret
    84aa:	66 0f 1f 44 00 00    	nopw   0x0(%rax,%rax,1)

00000000000084b0 <_ZN73_$LT$core..result..Result$LT$T$C$E$GT$$u20$as$u20$core..ops..try..Try$GT$11into_result17h6c87f4c0a92c152cE>:
    84b0:	48 83 ec 10          	sub    $0x10,%rsp
    84b4:	48 89 3c 24          	mov    %rdi,(%rsp)
    84b8:	48 89 74 24 08       	mov    %rsi,0x8(%rsp)
    84bd:	48 8b 04 24          	mov    (%rsp),%rax
    84c1:	48 8b 54 24 08       	mov    0x8(%rsp),%rdx
    84c6:	48 83 c4 10          	add    $0x10,%rsp
    84ca:	c3                   	ret
    84cb:	0f 1f 44 00 00       	nopl   0x0(%rax,%rax,1)

00000000000084d0 <_ZN73_$LT$core..result..Result$LT$T$C$E$GT$$u20$as$u20$core..ops..try..Try$GT$11into_result17hbb7ad9f1fd9787f1E>:
    84d0:	48 89 f8             	mov    %rdi,%rax
    84d3:	48 8b 0e             	mov    (%rsi),%rcx
    84d6:	48 89 0f             	mov    %rcx,(%rdi)
    84d9:	48 8b 4e 08          	mov    0x8(%rsi),%rcx
    84dd:	48 89 4f 08          	mov    %rcx,0x8(%rdi)
    84e1:	48 8b 4e 10          	mov    0x10(%rsi),%rcx
    84e5:	48 89 4f 10          	mov    %rcx,0x10(%rdi)
    84e9:	c3                   	ret
    84ea:	66 0f 1f 44 00 00    	nopw   0x0(%rax,%rax,1)

00000000000084f0 <_ZN4core3ptr33_$LT$impl$u20$$BP$const$u20$T$GT$6offset17h8b83db326c724801E>:
    84f0:	48 83 ec 20          	sub    $0x20,%rsp
    84f4:	48 89 7c 24 08       	mov    %rdi,0x8(%rsp)
    84f9:	48 89 74 24 10       	mov    %rsi,0x10(%rsp)
    84fe:	48 8b 44 24 08       	mov    0x8(%rsp),%rax
    8503:	48 69 4c 24 10 18 00 	imul   $0x18,0x10(%rsp),%rcx
    850a:	00 00 
    850c:	48 01 c8             	add    %rcx,%rax
    850f:	48 89 44 24 18       	mov    %rax,0x18(%rsp)
    8514:	48 8b 44 24 18       	mov    0x18(%rsp),%rax
    8519:	48 89 04 24          	mov    %rax,(%rsp)
    851d:	48 8b 04 24          	mov    (%rsp),%rax
    8521:	48 83 c4 20          	add    $0x20,%rsp
    8525:	c3                   	ret
    8526:	66 2e 0f 1f 84 00 00 	cs nopw 0x0(%rax,%rax,1)
    852d:	00 00 00 

0000000000008530 <_ZN4core3ptr33_$LT$impl$u20$$BP$const$u20$T$GT$7is_null17h76a4f4518c169689E>:
    8530:	48 83 ec 10          	sub    $0x10,%rsp
    8534:	48 89 7c 24 08       	mov    %rdi,0x8(%rsp)
    8539:	48 8b 44 24 08       	mov    0x8(%rsp),%rax
    853e:	48 89 04 24          	mov    %rax,(%rsp)
    8542:	48 8b 04 24          	mov    (%rsp),%rax
    8546:	48 83 f8 00          	cmp    $0x0,%rax
    854a:	0f 94 c1             	sete   %cl
    854d:	80 e1 01             	and    $0x1,%cl
    8550:	0f b6 d1             	movzbl %cl,%edx
    8553:	89 d0                	mov    %edx,%eax
    8555:	48 83 c4 10          	add    $0x10,%rsp
    8559:	c3                   	ret
    855a:	66 0f 1f 44 00 00    	nopw   0x0(%rax,%rax,1)

0000000000008560 <_ZN4core5alloc6Layout15from_size_align17hc27fe950dd43fdd9E>:
    8560:	48 83 ec 58          	sub    $0x58,%rsp
    8564:	48 89 7c 24 18       	mov    %rdi,0x18(%rsp)
    8569:	48 89 74 24 20       	mov    %rsi,0x20(%rsp)
    856e:	48 8b 7c 24 20       	mov    0x20(%rsp),%rdi
    8573:	e8 a8 34 00 00       	call   ba20 <_ZN4core3num23_$LT$impl$u20$usize$GT$15is_power_of_two17h34a285bae12467a1E>
    8578:	88 44 24 17          	mov    %al,0x17(%rsp)
    857c:	8a 44 24 17          	mov    0x17(%rsp),%al
    8580:	34 ff                	xor    $0xff,%al
    8582:	a8 01                	test   $0x1,%al
    8584:	75 22                	jne    85a8 <_ZN4core5alloc6Layout15from_size_align17hc27fe950dd43fdd9E+0x48>
    8586:	48 8b 44 24 18       	mov    0x18(%rsp),%rax
    858b:	48 8b 4c 24 20       	mov    0x20(%rsp),%rcx
    8590:	48 81 e9 01 00 00 00 	sub    $0x1,%rcx
    8597:	48 c7 c2 ff ff ff ff 	mov    $0xffffffffffffffff,%rdx
    859e:	48 29 ca             	sub    %rcx,%rdx
    85a1:	48 39 d0             	cmp    %rdx,%rax
    85a4:	77 34                	ja     85da <_ZN4core5alloc6Layout15from_size_align17hc27fe950dd43fdd9E+0x7a>
    85a6:	eb 18                	jmp    85c0 <_ZN4core5alloc6Layout15from_size_align17hc27fe950dd43fdd9E+0x60>
    85a8:	48 c7 44 24 30 00 00 	movq   $0x0,0x30(%rsp)
    85af:	00 00 
    85b1:	48 8b 44 24 28       	mov    0x28(%rsp),%rax
    85b6:	48 8b 54 24 30       	mov    0x30(%rsp),%rdx
    85bb:	48 83 c4 58          	add    $0x58,%rsp
    85bf:	c3                   	ret
    85c0:	48 8b 7c 24 18       	mov    0x18(%rsp),%rdi
    85c5:	48 8b 74 24 20       	mov    0x20(%rsp),%rsi
    85ca:	e8 c1 00 00 00       	call   8690 <_ZN4core5alloc6Layout25from_size_align_unchecked17hdfc424f50b0f1fbfE>
    85cf:	48 89 44 24 08       	mov    %rax,0x8(%rsp)
    85d4:	48 89 14 24          	mov    %rdx,(%rsp)
    85d8:	eb 0b                	jmp    85e5 <_ZN4core5alloc6Layout15from_size_align17hc27fe950dd43fdd9E+0x85>
    85da:	48 c7 44 24 30 00 00 	movq   $0x0,0x30(%rsp)
    85e1:	00 00 
    85e3:	eb cc                	jmp    85b1 <_ZN4core5alloc6Layout15from_size_align17hc27fe950dd43fdd9E+0x51>
    85e5:	48 8b 44 24 08       	mov    0x8(%rsp),%rax
    85ea:	48 89 44 24 28       	mov    %rax,0x28(%rsp)
    85ef:	48 8b 0c 24          	mov    (%rsp),%rcx
    85f3:	48 89 4c 24 30       	mov    %rcx,0x30(%rsp)
    85f8:	eb b7                	jmp    85b1 <_ZN4core5alloc6Layout15from_size_align17hc27fe950dd43fdd9E+0x51>
    85fa:	66 0f 1f 44 00 00    	nopw   0x0(%rax,%rax,1)

0000000000008600 <_ZN4core5alloc6Layout18padding_needed_for17hc1be839c013e3251E>:
    8600:	48 83 ec 48          	sub    $0x48,%rsp
    8604:	48 89 7c 24 28       	mov    %rdi,0x28(%rsp)
    8609:	48 89 74 24 30       	mov    %rsi,0x30(%rsp)
    860e:	48 8b 7c 24 28       	mov    0x28(%rsp),%rdi
    8613:	e8 c8 00 00 00       	call   86e0 <_ZN4core5alloc6Layout4size17h9bf1fbf5534a4197E>
    8618:	48 89 44 24 38       	mov    %rax,0x38(%rsp)
    861d:	48 8b 7c 24 38       	mov    0x38(%rsp),%rdi
    8622:	48 8b 74 24 30       	mov    0x30(%rsp),%rsi
    8627:	e8 04 33 00 00       	call   b930 <_ZN4core3num23_$LT$impl$u20$usize$GT$12wrapping_add17hdb042975d18fb4bcE>
    862c:	48 89 44 24 20       	mov    %rax,0x20(%rsp)
    8631:	48 8b 7c 24 20       	mov    0x20(%rsp),%rdi
    8636:	be 01 00 00 00       	mov    $0x1,%esi
    863b:	e8 20 33 00 00       	call   b960 <_ZN4core3num23_$LT$impl$u20$usize$GT$12wrapping_sub17h43a5262a6b5f97e5E>
    8640:	48 89 44 24 18       	mov    %rax,0x18(%rsp)
    8645:	48 8b 7c 24 30       	mov    0x30(%rsp),%rdi
    864a:	be 01 00 00 00       	mov    $0x1,%esi
    864f:	e8 0c 33 00 00       	call   b960 <_ZN4core3num23_$LT$impl$u20$usize$GT$12wrapping_sub17h43a5262a6b5f97e5E>
    8654:	48 89 44 24 10       	mov    %rax,0x10(%rsp)
    8659:	48 8b 44 24 10       	mov    0x10(%rsp),%rax
    865e:	48 35 ff ff ff ff    	xor    $0xffffffffffffffff,%rax
    8664:	48 8b 4c 24 18       	mov    0x18(%rsp),%rcx
    8669:	48 21 c1             	and    %rax,%rcx
    866c:	48 89 4c 24 40       	mov    %rcx,0x40(%rsp)
    8671:	48 8b 7c 24 40       	mov    0x40(%rsp),%rdi
    8676:	48 8b 74 24 38       	mov    0x38(%rsp),%rsi
    867b:	e8 e0 32 00 00       	call   b960 <_ZN4core3num23_$LT$impl$u20$usize$GT$12wrapping_sub17h43a5262a6b5f97e5E>
    8680:	48 89 44 24 08       	mov    %rax,0x8(%rsp)
    8685:	48 8b 44 24 08       	mov    0x8(%rsp),%rax
    868a:	48 83 c4 48          	add    $0x48,%rsp
    868e:	c3                   	ret
    868f:	90                   	nop

0000000000008690 <_ZN4core5alloc6Layout25from_size_align_unchecked17hdfc424f50b0f1fbfE>:
    8690:	48 83 ec 38          	sub    $0x38,%rsp
    8694:	48 89 7c 24 18       	mov    %rdi,0x18(%rsp)
    8699:	48 89 74 24 20       	mov    %rsi,0x20(%rsp)
    869e:	48 8b 44 24 18       	mov    0x18(%rsp),%rax
    86a3:	48 8b 7c 24 20       	mov    0x20(%rsp),%rdi
    86a8:	48 89 44 24 10       	mov    %rax,0x10(%rsp)
    86ad:	e8 de 30 00 00       	call   b790 <_ZN4core3num12NonZeroUsize13new_unchecked17h3feb13d8abfbdc23E>
    86b2:	48 89 44 24 08       	mov    %rax,0x8(%rsp)
    86b7:	48 8b 44 24 10       	mov    0x10(%rsp),%rax
    86bc:	48 89 44 24 28       	mov    %rax,0x28(%rsp)
    86c1:	48 8b 4c 24 08       	mov    0x8(%rsp),%rcx
    86c6:	48 89 4c 24 30       	mov    %rcx,0x30(%rsp)
    86cb:	48 8b 44 24 28       	mov    0x28(%rsp),%rax
    86d0:	48 8b 54 24 30       	mov    0x30(%rsp),%rdx
    86d5:	48 83 c4 38          	add    $0x38,%rsp
    86d9:	c3                   	ret
    86da:	66 0f 1f 44 00 00    	nopw   0x0(%rax,%rax,1)

00000000000086e0 <_ZN4core5alloc6Layout4size17h9bf1fbf5534a4197E>:
    86e0:	50                   	push   %rax
    86e1:	48 89 3c 24          	mov    %rdi,(%rsp)
    86e5:	48 8b 04 24          	mov    (%rsp),%rax
    86e9:	48 8b 00             	mov    (%rax),%rax
    86ec:	59                   	pop    %rcx
    86ed:	c3                   	ret
    86ee:	66 90                	xchg   %ax,%ax

00000000000086f0 <_ZN4core5alloc6Layout5align17h657c4871dbba8b80E>:
    86f0:	48 83 ec 18          	sub    $0x18,%rsp
    86f4:	48 89 7c 24 10       	mov    %rdi,0x10(%rsp)
    86f9:	48 8b 44 24 10       	mov    0x10(%rsp),%rax
    86fe:	48 8b 78 08          	mov    0x8(%rax),%rdi
    8702:	e8 a9 30 00 00       	call   b7b0 <_ZN4core3num12NonZeroUsize3get17h429e431a8348da17E>
    8707:	48 89 44 24 08       	mov    %rax,0x8(%rsp)
    870c:	48 8b 44 24 08       	mov    0x8(%rsp),%rax
    8711:	48 83 c4 18          	add    $0x18,%rsp
    8715:	c3                   	ret
    8716:	66 2e 0f 1f 84 00 00 	cs nopw 0x0(%rax,%rax,1)
    871d:	00 00 00 

0000000000008720 <_ZN4core5alloc6Layout6repeat17h094abc80acf3b4a9E>:
    8720:	48 81 ec 28 01 00 00 	sub    $0x128,%rsp
    8727:	48 89 f8             	mov    %rdi,%rax
    872a:	48 89 b4 24 90 00 00 	mov    %rsi,0x90(%rsp)
    8731:	00 
    8732:	48 89 94 24 98 00 00 	mov    %rdx,0x98(%rsp)
    8739:	00 
    873a:	48 8b 8c 24 90 00 00 	mov    0x90(%rsp),%rcx
    8741:	00 
    8742:	48 89 bc 24 88 00 00 	mov    %rdi,0x88(%rsp)
    8749:	00 
    874a:	48 89 cf             	mov    %rcx,%rdi
    874d:	48 89 84 24 80 00 00 	mov    %rax,0x80(%rsp)
    8754:	00 
    8755:	e8 86 ff ff ff       	call   86e0 <_ZN4core5alloc6Layout4size17h9bf1fbf5534a4197E>
    875a:	48 89 44 24 78       	mov    %rax,0x78(%rsp)
    875f:	48 8b bc 24 90 00 00 	mov    0x90(%rsp),%rdi
    8766:	00 
    8767:	48 8b 84 24 90 00 00 	mov    0x90(%rsp),%rax
    876e:	00 
    876f:	48 89 7c 24 70       	mov    %rdi,0x70(%rsp)
    8774:	48 89 c7             	mov    %rax,%rdi
    8777:	e8 74 ff ff ff       	call   86f0 <_ZN4core5alloc6Layout5align17h657c4871dbba8b80E>
    877c:	48 89 44 24 68       	mov    %rax,0x68(%rsp)
    8781:	48 8b 7c 24 70       	mov    0x70(%rsp),%rdi
    8786:	48 8b 74 24 68       	mov    0x68(%rsp),%rsi
    878b:	e8 70 fe ff ff       	call   8600 <_ZN4core5alloc6Layout18padding_needed_for17hc1be839c013e3251E>
    8790:	48 89 44 24 60       	mov    %rax,0x60(%rsp)
    8795:	48 8b 7c 24 78       	mov    0x78(%rsp),%rdi
    879a:	48 8b 74 24 60       	mov    0x60(%rsp),%rsi
    879f:	e8 ac 30 00 00       	call   b850 <_ZN4core3num23_$LT$impl$u20$usize$GT$11checked_add17h28d1784e2d208833E>
    87a4:	48 89 44 24 58       	mov    %rax,0x58(%rsp)
    87a9:	48 89 54 24 50       	mov    %rdx,0x50(%rsp)
    87ae:	48 8b 7c 24 58       	mov    0x58(%rsp),%rdi
    87b3:	48 8b 74 24 50       	mov    0x50(%rsp),%rsi
    87b8:	e8 13 0d 00 00       	call   94d0 <_ZN4core6option15Option$LT$T$GT$5ok_or17he9b693cafc586964E>
    87bd:	48 89 44 24 48       	mov    %rax,0x48(%rsp)
    87c2:	48 89 54 24 40       	mov    %rdx,0x40(%rsp)
    87c7:	48 8b 7c 24 48       	mov    0x48(%rsp),%rdi
    87cc:	48 8b 74 24 40       	mov    0x40(%rsp),%rsi
    87d1:	e8 da fc ff ff       	call   84b0 <_ZN73_$LT$core..result..Result$LT$T$C$E$GT$$u20$as$u20$core..ops..try..Try$GT$11into_result17h6c87f4c0a92c152cE>
    87d6:	48 89 94 24 b0 00 00 	mov    %rdx,0xb0(%rsp)
    87dd:	00 
    87de:	48 89 84 24 a8 00 00 	mov    %rax,0xa8(%rsp)
    87e5:	00 
    87e6:	48 8b 84 24 a8 00 00 	mov    0xa8(%rsp),%rax
    87ed:	00 
    87ee:	48 85 c0             	test   %rax,%rax
    87f1:	74 2e                	je     8821 <_ZN4core5alloc6Layout6repeat17h094abc80acf3b4a9E+0x101>
    87f3:	eb 00                	jmp    87f5 <_ZN4core5alloc6Layout6repeat17h094abc80acf3b4a9E+0xd5>
    87f5:	eb 02                	jmp    87f9 <_ZN4core5alloc6Layout6repeat17h094abc80acf3b4a9E+0xd9>
    87f7:	0f 0b                	ud2
    87f9:	e8 82 2f 00 00       	call   b780 <_ZN50_$LT$T$u20$as$u20$core..convert..From$LT$T$GT$$GT$4from17hc39f3c5feefea0f1E>
    87fe:	eb 10                	jmp    8810 <_ZN4core5alloc6Layout6repeat17h094abc80acf3b4a9E+0xf0>
    8800:	48 8b 84 24 80 00 00 	mov    0x80(%rsp),%rax
    8807:	00 
    8808:	48 81 c4 28 01 00 00 	add    $0x128,%rsp
    880f:	c3                   	ret
    8810:	48 8b bc 24 88 00 00 	mov    0x88(%rsp),%rdi
    8817:	00 
    8818:	e8 43 fc ff ff       	call   8460 <_ZN73_$LT$core..result..Result$LT$T$C$E$GT$$u20$as$u20$core..ops..try..Try$GT$10from_error17h9a0126687860ba3dE>
    881d:	eb 00                	jmp    881f <_ZN4core5alloc6Layout6repeat17h094abc80acf3b4a9E+0xff>
    881f:	eb df                	jmp    8800 <_ZN4core5alloc6Layout6repeat17h094abc80acf3b4a9E+0xe0>
    8821:	48 8b 84 24 b0 00 00 	mov    0xb0(%rsp),%rax
    8828:	00 
    8829:	48 89 84 24 d0 00 00 	mov    %rax,0xd0(%rsp)
    8830:	00 
    8831:	48 8b 84 24 d0 00 00 	mov    0xd0(%rsp),%rax
    8838:	00 
    8839:	48 89 84 24 a0 00 00 	mov    %rax,0xa0(%rsp)
    8840:	00 
    8841:	48 8b bc 24 a0 00 00 	mov    0xa0(%rsp),%rdi
    8848:	00 
    8849:	48 8b b4 24 98 00 00 	mov    0x98(%rsp),%rsi
    8850:	00 
    8851:	e8 6a 30 00 00       	call   b8c0 <_ZN4core3num23_$LT$impl$u20$usize$GT$11checked_mul17hf1166bc1e8d0e348E>
    8856:	48 89 44 24 38       	mov    %rax,0x38(%rsp)
    885b:	48 89 54 24 30       	mov    %rdx,0x30(%rsp)
    8860:	48 8b 7c 24 38       	mov    0x38(%rsp),%rdi
    8865:	48 8b 74 24 30       	mov    0x30(%rsp),%rsi
    886a:	e8 61 0c 00 00       	call   94d0 <_ZN4core6option15Option$LT$T$GT$5ok_or17he9b693cafc586964E>
    886f:	48 89 44 24 28       	mov    %rax,0x28(%rsp)
    8874:	48 89 54 24 20       	mov    %rdx,0x20(%rsp)
    8879:	48 8b 7c 24 28       	mov    0x28(%rsp),%rdi
    887e:	48 8b 74 24 20       	mov    0x20(%rsp),%rsi
    8883:	e8 28 fc ff ff       	call   84b0 <_ZN73_$LT$core..result..Result$LT$T$C$E$GT$$u20$as$u20$core..ops..try..Try$GT$11into_result17h6c87f4c0a92c152cE>
    8888:	48 89 94 24 e8 00 00 	mov    %rdx,0xe8(%rsp)
    888f:	00 
    8890:	48 89 84 24 e0 00 00 	mov    %rax,0xe0(%rsp)
    8897:	00 
    8898:	48 8b 84 24 e0 00 00 	mov    0xe0(%rsp),%rax
    889f:	00 
    88a0:	48 85 c0             	test   %rax,%rax
    88a3:	74 1d                	je     88c2 <_ZN4core5alloc6Layout6repeat17h094abc80acf3b4a9E+0x1a2>
    88a5:	eb 00                	jmp    88a7 <_ZN4core5alloc6Layout6repeat17h094abc80acf3b4a9E+0x187>
    88a7:	eb 02                	jmp    88ab <_ZN4core5alloc6Layout6repeat17h094abc80acf3b4a9E+0x18b>
    88a9:	0f 0b                	ud2
    88ab:	e8 d0 2e 00 00       	call   b780 <_ZN50_$LT$T$u20$as$u20$core..convert..From$LT$T$GT$$GT$4from17hc39f3c5feefea0f1E>
    88b0:	48 8b bc 24 88 00 00 	mov    0x88(%rsp),%rdi
    88b7:	00 
    88b8:	e8 a3 fb ff ff       	call   8460 <_ZN73_$LT$core..result..Result$LT$T$C$E$GT$$u20$as$u20$core..ops..try..Try$GT$10from_error17h9a0126687860ba3dE>
    88bd:	e9 5d ff ff ff       	jmp    881f <_ZN4core5alloc6Layout6repeat17h094abc80acf3b4a9E+0xff>
    88c2:	48 8b 84 24 e8 00 00 	mov    0xe8(%rsp),%rax
    88c9:	00 
    88ca:	48 89 84 24 08 01 00 	mov    %rax,0x108(%rsp)
    88d1:	00 
    88d2:	48 8b 84 24 08 01 00 	mov    0x108(%rsp),%rax
    88d9:	00 
    88da:	48 89 84 24 d8 00 00 	mov    %rax,0xd8(%rsp)
    88e1:	00 
    88e2:	48 8b bc 24 d8 00 00 	mov    0xd8(%rsp),%rdi
    88e9:	00 
    88ea:	48 8b 84 24 90 00 00 	mov    0x90(%rsp),%rax
    88f1:	00 
    88f2:	48 89 7c 24 18       	mov    %rdi,0x18(%rsp)
    88f7:	48 89 c7             	mov    %rax,%rdi
    88fa:	e8 f1 fd ff ff       	call   86f0 <_ZN4core5alloc6Layout5align17h657c4871dbba8b80E>
    88ff:	48 89 44 24 10       	mov    %rax,0x10(%rsp)
    8904:	48 8b 7c 24 18       	mov    0x18(%rsp),%rdi
    8909:	48 8b 74 24 10       	mov    0x10(%rsp),%rsi
    890e:	e8 7d fd ff ff       	call   8690 <_ZN4core5alloc6Layout25from_size_align_unchecked17hdfc424f50b0f1fbfE>
    8913:	48 89 44 24 08       	mov    %rax,0x8(%rsp)
    8918:	48 89 14 24          	mov    %rdx,(%rsp)
    891c:	48 8b 84 24 a0 00 00 	mov    0xa0(%rsp),%rax
    8923:	00 
    8924:	48 8b 4c 24 08       	mov    0x8(%rsp),%rcx
    8929:	48 89 8c 24 10 01 00 	mov    %rcx,0x110(%rsp)
    8930:	00 
    8931:	48 8b 14 24          	mov    (%rsp),%rdx
    8935:	48 89 94 24 18 01 00 	mov    %rdx,0x118(%rsp)
    893c:	00 
    893d:	48 89 84 24 20 01 00 	mov    %rax,0x120(%rsp)
    8944:	00 
    8945:	48 8b 84 24 10 01 00 	mov    0x110(%rsp),%rax
    894c:	00 
    894d:	48 8b b4 24 88 00 00 	mov    0x88(%rsp),%rsi
    8954:	00 
    8955:	48 89 06             	mov    %rax,(%rsi)
    8958:	48 8b 84 24 18 01 00 	mov    0x118(%rsp),%rax
    895f:	00 
    8960:	48 89 46 08          	mov    %rax,0x8(%rsi)
    8964:	48 8b 84 24 20 01 00 	mov    0x120(%rsp),%rax
    896b:	00 
    896c:	48 89 46 10          	mov    %rax,0x10(%rsi)
    8970:	e9 8b fe ff ff       	jmp    8800 <_ZN4core5alloc6Layout6repeat17h094abc80acf3b4a9E+0xe0>
    8975:	66 2e 0f 1f 84 00 00 	cs nopw 0x0(%rax,%rax,1)
    897c:	00 00 00 
    897f:	90                   	nop

0000000000008980 <_ZN4rust4main17h63c458066336c390E>:
    8980:	48 81 ec d8 01 00 00 	sub    $0x1d8,%rsp
    8987:	c6 84 24 c7 01 00 00 	movb   $0x0,0x1c7(%rsp)
    898e:	00 
    898f:	48 8d 7c 24 68       	lea    0x68(%rsp),%rdi
    8994:	ff 15 46 81 03 00    	call   *0x38146(%rip)        # 40ae0 <_GLOBAL_OFFSET_TABLE_+0x150>
    899a:	eb 0f                	jmp    89ab <_ZN4rust4main17h63c458066336c390E+0x2b>
    899c:	48 8b bc 24 c8 01 00 	mov    0x1c8(%rsp),%rdi
    89a3:	00 
    89a4:	e8 47 c7 ff ff       	call   50f0 <_Unwind_Resume@plt>
    89a9:	0f 0b                	ud2
    89ab:	48 8d 7c 24 50       	lea    0x50(%rsp),%rdi
    89b0:	48 8d 74 24 68       	lea    0x68(%rsp),%rsi
    89b5:	e8 76 31 00 00       	call   bb30 <_ZN4core4iter6traits8iterator8Iterator7collect17hd2e7eacab19914e0E>
    89ba:	48 8d 3d df 76 02 00 	lea    0x276df(%rip),%rdi        # 300a0 <_fini+0xb48>
    89c1:	be 20 00 00 00       	mov    $0x20,%esi
    89c6:	e8 f5 03 00 00       	call   8dc0 <_ZN4core3str21_$LT$impl$u20$str$GT$5chars17hb91836f1fba97b01E>
    89cb:	48 89 54 24 48       	mov    %rdx,0x48(%rsp)
    89d0:	48 89 44 24 40       	mov    %rax,0x40(%rsp)
    89d5:	eb 00                	jmp    89d7 <_ZN4rust4main17h63c458066336c390E+0x57>
    89d7:	48 8b 7c 24 40       	mov    0x40(%rsp),%rdi
    89dc:	48 8b 74 24 48       	mov    0x48(%rsp),%rsi
    89e1:	e8 da 25 00 00       	call   afc0 <_ZN4core4iter6traits8iterator8Iterator3map17hfa90369a7b4a580dE>
    89e6:	48 89 54 24 38       	mov    %rdx,0x38(%rsp)
    89eb:	48 89 44 24 30       	mov    %rax,0x30(%rsp)
    89f0:	eb 0c                	jmp    89fe <_ZN4rust4main17h63c458066336c390E+0x7e>
    89f2:	48 8d 7c 24 50       	lea    0x50(%rsp),%rdi
    89f7:	e8 e4 10 00 00       	call   9ae0 <_ZN4core3ptr18real_drop_in_place17hcb2bf1574d8b3d81E>
    89fc:	eb 9e                	jmp    899c <_ZN4rust4main17h63c458066336c390E+0x1c>
    89fe:	48 8d bc 24 88 00 00 	lea    0x88(%rsp),%rdi
    8a05:	00 
    8a06:	48 8b 74 24 30       	mov    0x30(%rsp),%rsi
    8a0b:	48 8b 54 24 38       	mov    0x38(%rsp),%rdx
    8a10:	e8 4b 1d 00 00       	call   a760 <_ZN4core4iter6traits8iterator8Iterator7collect17h4bf33e09dc51e7bdE>
    8a15:	eb 00                	jmp    8a17 <_ZN4rust4main17h63c458066336c390E+0x97>
    8a17:	c6 84 24 c7 01 00 00 	movb   $0x1,0x1c7(%rsp)
    8a1e:	01 
    8a1f:	48 8d 7c 24 50       	lea    0x50(%rsp),%rdi
    8a24:	e8 57 37 00 00       	call   c180 <_ZN5alloc3vec12Vec$LT$T$GT$3len17h0cf0c77cbc3c3edfE>
    8a29:	48 89 44 24 28       	mov    %rax,0x28(%rsp)
    8a2e:	eb 3d                	jmp    8a6d <_ZN4rust4main17h63c458066336c390E+0xed>
    8a30:	c6 84 24 a7 00 00 00 	movb   $0x1,0xa7(%rsp)
    8a37:	01 
    8a38:	eb 20                	jmp    8a5a <_ZN4rust4main17h63c458066336c390E+0xda>
    8a3a:	c6 84 24 a7 00 00 00 	movb   $0x0,0xa7(%rsp)
    8a41:	00 
    8a42:	eb 16                	jmp    8a5a <_ZN4rust4main17h63c458066336c390E+0xda>
    8a44:	48 8d 7c 24 50       	lea    0x50(%rsp),%rdi
    8a49:	be 01 00 00 00       	mov    $0x1,%esi
    8a4e:	e8 fd 3d 00 00       	call   c850 <_ZN77_$LT$alloc..vec..Vec$LT$T$GT$$u20$as$u20$core..ops..index..Index$LT$I$GT$$GT$5index17h20bfabf90c45a8feE>
    8a53:	48 89 44 24 20       	mov    %rax,0x20(%rsp)
    8a58:	eb 20                	jmp    8a7a <_ZN4rust4main17h63c458066336c390E+0xfa>
    8a5a:	f6 84 24 a7 00 00 00 	testb  $0x1,0xa7(%rsp)
    8a61:	01 
    8a62:	0f 85 da 00 00 00    	jne    8b42 <_ZN4rust4main17h63c458066336c390E+0x1c2>
    8a68:	e9 ad 00 00 00       	jmp    8b1a <_ZN4rust4main17h63c458066336c390E+0x19a>
    8a6d:	48 8b 44 24 28       	mov    0x28(%rsp),%rax
    8a72:	48 83 f8 01          	cmp    $0x1,%rax
    8a76:	77 cc                	ja     8a44 <_ZN4rust4main17h63c458066336c390E+0xc4>
    8a78:	eb c0                	jmp    8a3a <_ZN4rust4main17h63c458066336c390E+0xba>
    8a7a:	c6 84 24 c7 01 00 00 	movb   $0x0,0x1c7(%rsp)
    8a81:	00 
    8a82:	48 8b 84 24 98 00 00 	mov    0x98(%rsp),%rax
    8a89:	00 
    8a8a:	48 89 84 24 00 01 00 	mov    %rax,0x100(%rsp)
    8a91:	00 
    8a92:	0f 10 84 24 88 00 00 	movups 0x88(%rsp),%xmm0
    8a99:	00 
    8a9a:	0f 29 84 24 f0 00 00 	movaps %xmm0,0xf0(%rsp)
    8aa1:	00 
    8aa2:	48 8d bc 24 c0 00 00 	lea    0xc0(%rsp),%rdi
    8aa9:	00 
    8aaa:	48 8d b4 24 f0 00 00 	lea    0xf0(%rsp),%rsi
    8ab1:	00 
    8ab2:	e8 b9 25 00 00       	call   b070 <_ZN5alloc6string6String9from_utf817h8a7f836dd95af533E>
    8ab7:	eb 00                	jmp    8ab9 <_ZN4rust4main17h63c458066336c390E+0x139>
    8ab9:	48 8d bc 24 a8 00 00 	lea    0xa8(%rsp),%rdi
    8ac0:	00 
    8ac1:	48 8d b4 24 c0 00 00 	lea    0xc0(%rsp),%rsi
    8ac8:	00 
    8ac9:	e8 22 f4 ff ff       	call   7ef0 <_ZN4core6result19Result$LT$T$C$E$GT$6unwrap17ha29b36fab54e5828E>
    8ace:	eb 00                	jmp    8ad0 <_ZN4rust4main17h63c458066336c390E+0x150>
    8ad0:	48 8d b4 24 a8 00 00 	lea    0xa8(%rsp),%rsi
    8ad7:	00 
    8ad8:	48 8b 7c 24 20       	mov    0x20(%rsp),%rdi
    8add:	e8 be 27 00 00       	call   b2a0 <_ZN62_$LT$alloc..string..String$u20$as$u20$core..cmp..PartialEq$GT$2eq17h700ca63832dac8f1E>
    8ae2:	88 44 24 1f          	mov    %al,0x1f(%rsp)
    8ae6:	eb 12                	jmp    8afa <_ZN4rust4main17h63c458066336c390E+0x17a>
    8ae8:	48 8d bc 24 a8 00 00 	lea    0xa8(%rsp),%rdi
    8aef:	00 
    8af0:	e8 5b 0d 00 00       	call   9850 <_ZN4core3ptr18real_drop_in_place17h4d8bb75002ca5e74E>
    8af5:	e9 72 01 00 00       	jmp    8c6c <_ZN4rust4main17h63c458066336c390E+0x2ec>
    8afa:	48 8d bc 24 a8 00 00 	lea    0xa8(%rsp),%rdi
    8b01:	00 
    8b02:	e8 49 0d 00 00       	call   9850 <_ZN4core3ptr18real_drop_in_place17h4d8bb75002ca5e74E>
    8b07:	eb 00                	jmp    8b09 <_ZN4rust4main17h63c458066336c390E+0x189>
    8b09:	8a 44 24 1f          	mov    0x1f(%rsp),%al
    8b0d:	a8 01                	test   $0x1,%al
    8b0f:	0f 85 1b ff ff ff    	jne    8a30 <_ZN4rust4main17h63c458066336c390E+0xb0>
    8b15:	e9 20 ff ff ff       	jmp    8a3a <_ZN4rust4main17h63c458066336c390E+0xba>
    8b1a:	48 8d 35 4f 63 03 00 	lea    0x3634f(%rip),%rsi        # 3ee70 <__do_global_dtors_aux_fini_array_entry+0xa8>
    8b21:	31 c0                	xor    %eax,%eax
    8b23:	41 89 c0             	mov    %eax,%r8d
    8b26:	48 8d bc 24 90 01 00 	lea    0x190(%rsp),%rdi
    8b2d:	00 
    8b2e:	ba 01 00 00 00       	mov    $0x1,%edx
    8b33:	b9 08 00 00 00       	mov    $0x8,%ecx
    8b38:	e8 23 28 00 00       	call   b360 <_ZN4core3fmt9Arguments6new_v117h967d3943b1c05281E>
    8b3d:	e9 e1 00 00 00       	jmp    8c23 <_ZN4rust4main17h63c458066336c390E+0x2a3>
    8b42:	48 8d 35 f7 62 03 00 	lea    0x362f7(%rip),%rsi        # 3ee40 <__do_global_dtors_aux_fini_array_entry+0x78>
    8b49:	31 c0                	xor    %eax,%eax
    8b4b:	41 89 c0             	mov    %eax,%r8d
    8b4e:	48 8d bc 24 10 01 00 	lea    0x110(%rsp),%rdi
    8b55:	00 
    8b56:	ba 01 00 00 00       	mov    $0x1,%edx
    8b5b:	b9 08 00 00 00       	mov    $0x8,%ecx
    8b60:	e8 fb 27 00 00       	call   b360 <_ZN4core3fmt9Arguments6new_v117h967d3943b1c05281E>
    8b65:	eb 00                	jmp    8b67 <_ZN4rust4main17h63c458066336c390E+0x1e7>
    8b67:	48 8d 05 12 8b 00 00 	lea    0x8b12(%rip),%rax        # 11680 <_ZN3std2io5stdio6_print17hb57ef42b29f9a20aE>
    8b6e:	48 8d bc 24 10 01 00 	lea    0x110(%rsp),%rdi
    8b75:	00 
    8b76:	ff d0                	call   *%rax
    8b78:	eb 00                	jmp    8b7a <_ZN4rust4main17h63c458066336c390E+0x1fa>
    8b7a:	48 8d 7c 24 50       	lea    0x50(%rsp),%rdi
    8b7f:	be 01 00 00 00       	mov    $0x1,%esi
    8b84:	e8 c7 3c 00 00       	call   c850 <_ZN77_$LT$alloc..vec..Vec$LT$T$GT$$u20$as$u20$core..ops..index..Index$LT$I$GT$$GT$5index17h20bfabf90c45a8feE>
    8b89:	48 89 44 24 10       	mov    %rax,0x10(%rsp)
    8b8e:	eb 00                	jmp    8b90 <_ZN4rust4main17h63c458066336c390E+0x210>
    8b90:	48 8b 44 24 10       	mov    0x10(%rsp),%rax
    8b95:	48 89 84 24 80 01 00 	mov    %rax,0x180(%rsp)
    8b9c:	00 
    8b9d:	48 8b 8c 24 80 01 00 	mov    0x180(%rsp),%rcx
    8ba4:	00 
    8ba5:	48 89 8c 24 88 01 00 	mov    %rcx,0x188(%rsp)
    8bac:	00 
    8bad:	48 8b bc 24 88 01 00 	mov    0x188(%rsp),%rdi
    8bb4:	00 
    8bb5:	48 8d 35 94 26 00 00 	lea    0x2694(%rip),%rsi        # b250 <_ZN60_$LT$alloc..string..String$u20$as$u20$core..fmt..Display$GT$3fmt17had703f1c3fc7e72eE>
    8bbc:	e8 cf 1d 00 00       	call   a990 <_ZN4core3fmt10ArgumentV13new17h5564c255859325edE>
    8bc1:	48 89 54 24 08       	mov    %rdx,0x8(%rsp)
    8bc6:	48 89 04 24          	mov    %rax,(%rsp)
    8bca:	eb 00                	jmp    8bcc <_ZN4rust4main17h63c458066336c390E+0x24c>
    8bcc:	48 8b 04 24          	mov    (%rsp),%rax
    8bd0:	48 89 84 24 70 01 00 	mov    %rax,0x170(%rsp)
    8bd7:	00 
    8bd8:	48 8b 4c 24 08       	mov    0x8(%rsp),%rcx
    8bdd:	48 89 8c 24 78 01 00 	mov    %rcx,0x178(%rsp)
    8be4:	00 
    8be5:	48 8d 35 64 62 03 00 	lea    0x36264(%rip),%rsi        # 3ee50 <__do_global_dtors_aux_fini_array_entry+0x88>
    8bec:	48 8d bc 24 40 01 00 	lea    0x140(%rsp),%rdi
    8bf3:	00 
    8bf4:	ba 02 00 00 00       	mov    $0x2,%edx
    8bf9:	48 8d 8c 24 70 01 00 	lea    0x170(%rsp),%rcx
    8c00:	00 
    8c01:	41 b8 01 00 00 00    	mov    $0x1,%r8d
    8c07:	e8 54 27 00 00       	call   b360 <_ZN4core3fmt9Arguments6new_v117h967d3943b1c05281E>
    8c0c:	eb 00                	jmp    8c0e <_ZN4rust4main17h63c458066336c390E+0x28e>
    8c0e:	48 8d 05 6b 8a 00 00 	lea    0x8a6b(%rip),%rax        # 11680 <_ZN3std2io5stdio6_print17hb57ef42b29f9a20aE>
    8c15:	48 8d bc 24 40 01 00 	lea    0x140(%rsp),%rdi
    8c1c:	00 
    8c1d:	ff d0                	call   *%rax
    8c1f:	eb 00                	jmp    8c21 <_ZN4rust4main17h63c458066336c390E+0x2a1>
    8c21:	eb 6f                	jmp    8c92 <_ZN4rust4main17h63c458066336c390E+0x312>
    8c23:	48 8d 05 56 8a 00 00 	lea    0x8a56(%rip),%rax        # 11680 <_ZN3std2io5stdio6_print17hb57ef42b29f9a20aE>
    8c2a:	48 8d bc 24 90 01 00 	lea    0x190(%rsp),%rdi
    8c31:	00 
    8c32:	ff d0                	call   *%rax
    8c34:	eb 00                	jmp    8c36 <_ZN4rust4main17h63c458066336c390E+0x2b6>
    8c36:	eb 5a                	jmp    8c92 <_ZN4rust4main17h63c458066336c390E+0x312>
    8c38:	c6 84 24 c7 01 00 00 	movb   $0x0,0x1c7(%rsp)
    8c3f:	00 
    8c40:	48 8d 7c 24 50       	lea    0x50(%rsp),%rdi
    8c45:	e8 96 0e 00 00       	call   9ae0 <_ZN4core3ptr18real_drop_in_place17hcb2bf1574d8b3d81E>
    8c4a:	48 81 c4 d8 01 00 00 	add    $0x1d8,%rsp
    8c51:	c3                   	ret
    8c52:	c6 84 24 c7 01 00 00 	movb   $0x0,0x1c7(%rsp)
    8c59:	00 
    8c5a:	48 8d bc 24 88 00 00 	lea    0x88(%rsp),%rdi
    8c61:	00 
    8c62:	e8 29 0e 00 00       	call   9a90 <_ZN4core3ptr18real_drop_in_place17hbd66ca90dce3b907E>
    8c67:	e9 86 fd ff ff       	jmp    89f2 <_ZN4rust4main17h63c458066336c390E+0x72>
    8c6c:	f6 84 24 c7 01 00 00 	testb  $0x1,0x1c7(%rsp)
    8c73:	01 
    8c74:	75 dc                	jne    8c52 <_ZN4rust4main17h63c458066336c390E+0x2d2>
    8c76:	e9 77 fd ff ff       	jmp    89f2 <_ZN4rust4main17h63c458066336c390E+0x72>
    8c7b:	c6 84 24 c7 01 00 00 	movb   $0x0,0x1c7(%rsp)
    8c82:	00 
    8c83:	48 8d bc 24 88 00 00 	lea    0x88(%rsp),%rdi
    8c8a:	00 
    8c8b:	e8 00 0e 00 00       	call   9a90 <_ZN4core3ptr18real_drop_in_place17hbd66ca90dce3b907E>
    8c90:	eb a6                	jmp    8c38 <_ZN4rust4main17h63c458066336c390E+0x2b8>
    8c92:	f6 84 24 c7 01 00 00 	testb  $0x1,0x1c7(%rsp)
    8c99:	01 
    8c9a:	75 df                	jne    8c7b <_ZN4rust4main17h63c458066336c390E+0x2fb>
    8c9c:	eb 9a                	jmp    8c38 <_ZN4rust4main17h63c458066336c390E+0x2b8>
    8c9e:	48 89 84 24 c8 01 00 	mov    %rax,0x1c8(%rsp)
    8ca5:	00 
    8ca6:	89 94 24 d0 01 00 00 	mov    %edx,0x1d0(%rsp)
    8cad:	e9 40 fd ff ff       	jmp    89f2 <_ZN4rust4main17h63c458066336c390E+0x72>
    8cb2:	48 89 84 24 c8 01 00 	mov    %rax,0x1c8(%rsp)
    8cb9:	00 
    8cba:	89 94 24 d0 01 00 00 	mov    %edx,0x1d0(%rsp)
    8cc1:	eb a9                	jmp    8c6c <_ZN4rust4main17h63c458066336c390E+0x2ec>
    8cc3:	48 89 84 24 c8 01 00 	mov    %rax,0x1c8(%rsp)
    8cca:	00 
    8ccb:	89 94 24 d0 01 00 00 	mov    %edx,0x1d0(%rsp)
    8cd2:	e9 11 fe ff ff       	jmp    8ae8 <_ZN4rust4main17h63c458066336c390E+0x168>
    8cd7:	66 0f 1f 84 00 00 00 	nopw   0x0(%rax,%rax,1)
    8cde:	00 00 

0000000000008ce0 <main>:
    8ce0:	48 83 ec 18          	sub    $0x18,%rsp
    8ce4:	8a 05 ce b4 02 00    	mov    0x2b4ce(%rip),%al        # 341b8 <__rustc_debug_gdb_scripts_section__>
    8cea:	48 63 cf             	movslq %edi,%rcx
    8ced:	48 8d 3d 8c fc ff ff 	lea    -0x374(%rip),%rdi        # 8980 <_ZN4rust4main17h63c458066336c390E>
    8cf4:	48 89 74 24 10       	mov    %rsi,0x10(%rsp)
    8cf9:	48 89 ce             	mov    %rcx,%rsi
    8cfc:	48 8b 54 24 10       	mov    0x10(%rsp),%rdx
    8d01:	88 44 24 0f          	mov    %al,0xf(%rsp)
    8d05:	e8 e6 1c 00 00       	call   a9f0 <_ZN3std2rt10lang_start17hcdda5f9db776092cE>
    8d0a:	48 83 c4 18          	add    $0x18,%rsp
    8d0e:	c3                   	ret
    8d0f:	90                   	nop

0000000000008d10 <_ZN4core3str11unwrap_or_017h03d14f613aa3fa23E>:
    8d10:	48 83 ec 10          	sub    $0x10,%rsp
    8d14:	48 89 3c 24          	mov    %rdi,(%rsp)
    8d18:	48 8b 04 24          	mov    (%rsp),%rax
    8d1c:	48 85 c0             	test   %rax,%rax
    8d1f:	0f 95 c1             	setne  %cl
    8d22:	0f b6 d1             	movzbl %cl,%edx
    8d25:	89 d0                	mov    %edx,%eax
    8d27:	74 04                	je     8d2d <_ZN4core3str11unwrap_or_017h03d14f613aa3fa23E+0x1d>
    8d29:	eb 00                	jmp    8d2b <_ZN4core3str11unwrap_or_017h03d14f613aa3fa23E+0x1b>
    8d2b:	eb 09                	jmp    8d36 <_ZN4core3str11unwrap_or_017h03d14f613aa3fa23E+0x26>
    8d2d:	c6 44 24 0e 00       	movb   $0x0,0xe(%rsp)
    8d32:	eb 14                	jmp    8d48 <_ZN4core3str11unwrap_or_017h03d14f613aa3fa23E+0x38>
    8d34:	0f 0b                	ud2
    8d36:	48 8b 04 24          	mov    (%rsp),%rax
    8d3a:	8a 08                	mov    (%rax),%cl
    8d3c:	88 4c 24 0f          	mov    %cl,0xf(%rsp)
    8d40:	8a 4c 24 0f          	mov    0xf(%rsp),%cl
    8d44:	88 4c 24 0e          	mov    %cl,0xe(%rsp)
    8d48:	8a 44 24 0e          	mov    0xe(%rsp),%al
    8d4c:	48 83 c4 10          	add    $0x10,%rsp
    8d50:	c3                   	ret
    8d51:	66 2e 0f 1f 84 00 00 	cs nopw 0x0(%rax,%rax,1)
    8d58:	00 00 00 
    8d5b:	0f 1f 44 00 00       	nopl   0x0(%rax,%rax,1)

0000000000008d60 <_ZN4core3str15utf8_first_byte17hd0eb8fc99e8c84daE>:
    8d60:	50                   	push   %rax
    8d61:	40 88 7c 24 03       	mov    %dil,0x3(%rsp)
    8d66:	89 74 24 04          	mov    %esi,0x4(%rsp)
    8d6a:	8a 44 24 03          	mov    0x3(%rsp),%al
    8d6e:	8b 4c 24 04          	mov    0x4(%rsp),%ecx
    8d72:	80 e1 07             	and    $0x7,%cl
    8d75:	b2 7f                	mov    $0x7f,%dl
    8d77:	d2 ea                	shr    %cl,%dl
    8d79:	20 d0                	and    %dl,%al
    8d7b:	0f b6 c0             	movzbl %al,%eax
    8d7e:	59                   	pop    %rcx
    8d7f:	c3                   	ret

0000000000008d80 <_ZN4core3str18utf8_acc_cont_byte17hac9c553a84dd308aE>:
    8d80:	50                   	push   %rax
    8d81:	89 3c 24             	mov    %edi,(%rsp)
    8d84:	40 88 74 24 07       	mov    %sil,0x7(%rsp)
    8d89:	8b 04 24             	mov    (%rsp),%eax
    8d8c:	c1 e0 06             	shl    $0x6,%eax
    8d8f:	8a 4c 24 07          	mov    0x7(%rsp),%cl
    8d93:	80 e1 3f             	and    $0x3f,%cl
    8d96:	0f b6 d1             	movzbl %cl,%edx
    8d99:	09 d0                	or     %edx,%eax
    8d9b:	59                   	pop    %rcx
    8d9c:	c3                   	ret
    8d9d:	0f 1f 00             	nopl   (%rax)

0000000000008da0 <_ZN4core3str19from_utf8_unchecked17h11f7072d0ca0ed79E>:
    8da0:	48 83 ec 10          	sub    $0x10,%rsp
    8da4:	48 89 3c 24          	mov    %rdi,(%rsp)
    8da8:	48 89 74 24 08       	mov    %rsi,0x8(%rsp)
    8dad:	48 8b 04 24          	mov    (%rsp),%rax
    8db1:	48 8b 54 24 08       	mov    0x8(%rsp),%rdx
    8db6:	48 83 c4 10          	add    $0x10,%rsp
    8dba:	c3                   	ret
    8dbb:	0f 1f 44 00 00       	nopl   0x0(%rax,%rax,1)

0000000000008dc0 <_ZN4core3str21_$LT$impl$u20$str$GT$5chars17hb91836f1fba97b01E>:
    8dc0:	48 83 ec 68          	sub    $0x68,%rsp
    8dc4:	48 89 7c 24 28       	mov    %rdi,0x28(%rsp)
    8dc9:	48 89 74 24 30       	mov    %rsi,0x30(%rsp)
    8dce:	48 8b 44 24 28       	mov    0x28(%rsp),%rax
    8dd3:	48 8b 4c 24 30       	mov    0x30(%rsp),%rcx
    8dd8:	48 89 44 24 48       	mov    %rax,0x48(%rsp)
    8ddd:	48 89 4c 24 50       	mov    %rcx,0x50(%rsp)
    8de2:	48 8b 44 24 48       	mov    0x48(%rsp),%rax
    8de7:	48 8b 4c 24 50       	mov    0x50(%rsp),%rcx
    8dec:	48 89 44 24 58       	mov    %rax,0x58(%rsp)
    8df1:	48 89 4c 24 60       	mov    %rcx,0x60(%rsp)
    8df6:	48 8b 7c 24 58       	mov    0x58(%rsp),%rdi
    8dfb:	48 8b 74 24 60       	mov    0x60(%rsp),%rsi
    8e00:	48 89 7c 24 20       	mov    %rdi,0x20(%rsp)
    8e05:	48 89 74 24 18       	mov    %rsi,0x18(%rsp)
    8e0a:	48 8b 7c 24 20       	mov    0x20(%rsp),%rdi
    8e0f:	48 8b 74 24 18       	mov    0x18(%rsp),%rsi
    8e14:	e8 27 14 00 00       	call   a240 <_ZN4core5slice29_$LT$impl$u20$$u5b$T$u5d$$GT$4iter17h8a4cb8174cc691e5E>
    8e19:	48 89 44 24 10       	mov    %rax,0x10(%rsp)
    8e1e:	48 89 54 24 08       	mov    %rdx,0x8(%rsp)
    8e23:	48 8b 44 24 10       	mov    0x10(%rsp),%rax
    8e28:	48 89 44 24 38       	mov    %rax,0x38(%rsp)
    8e2d:	48 8b 4c 24 08       	mov    0x8(%rsp),%rcx
    8e32:	48 89 4c 24 40       	mov    %rcx,0x40(%rsp)
    8e37:	48 8b 44 24 38       	mov    0x38(%rsp),%rax
    8e3c:	48 8b 54 24 40       	mov    0x40(%rsp),%rdx
    8e41:	48 83 c4 68          	add    $0x68,%rsp
    8e45:	c3                   	ret
    8e46:	66 2e 0f 1f 84 00 00 	cs nopw 0x0(%rax,%rax,1)
    8e4d:	00 00 00 

0000000000008e50 <_ZN75_$LT$core..str..Chars$u20$as$u20$core..iter..traits..iterator..Iterator$GT$4next17h812ba14d0e58371eE>:
    8e50:	48 83 ec 28          	sub    $0x28,%rsp
    8e54:	48 89 7c 24 18       	mov    %rdi,0x18(%rsp)
    8e59:	48 8b 7c 24 18       	mov    0x18(%rsp),%rdi
    8e5e:	e8 cd 1f 00 00       	call   ae30 <_ZN4core3str15next_code_point17hd49c6298d90a6dd5E>
    8e63:	89 44 24 14          	mov    %eax,0x14(%rsp)
    8e67:	89 54 24 10          	mov    %edx,0x10(%rsp)
    8e6b:	8b 7c 24 14          	mov    0x14(%rsp),%edi
    8e6f:	8b 74 24 10          	mov    0x10(%rsp),%esi
    8e73:	e8 e8 02 00 00       	call   9160 <_ZN4core6option15Option$LT$T$GT$3map17h3054f3fedb02a18bE>
    8e78:	89 44 24 0c          	mov    %eax,0xc(%rsp)
    8e7c:	8b 44 24 0c          	mov    0xc(%rsp),%eax
    8e80:	48 83 c4 28          	add    $0x28,%rsp
    8e84:	c3                   	ret
    8e85:	66 2e 0f 1f 84 00 00 	cs nopw 0x0(%rax,%rax,1)
    8e8c:	00 00 00 
    8e8f:	90                   	nop

0000000000008e90 <_ZN75_$LT$core..str..Chars$u20$as$u20$core..iter..traits..iterator..Iterator$GT$9size_hint17hd91aa8f3e5327e49E>:
    8e90:	48 83 ec 78          	sub    $0x78,%rsp
    8e94:	48 89 f8             	mov    %rdi,%rax
    8e97:	48 89 74 24 20       	mov    %rsi,0x20(%rsp)
    8e9c:	48 8b 4c 24 20       	mov    0x20(%rsp),%rcx
    8ea1:	48 89 4c 24 40       	mov    %rcx,0x40(%rsp)
    8ea6:	48 8b 4c 24 40       	mov    0x40(%rsp),%rcx
    8eab:	48 8b 09             	mov    (%rcx),%rcx
    8eae:	48 89 4c 24 50       	mov    %rcx,0x50(%rsp)
    8eb3:	48 8b 4c 24 50       	mov    0x50(%rsp),%rcx
    8eb8:	48 89 4c 24 68       	mov    %rcx,0x68(%rsp)
    8ebd:	48 c7 44 24 70 01 00 	movq   $0x1,0x70(%rsp)
    8ec4:	00 00 
    8ec6:	48 8b 4c 24 70       	mov    0x70(%rsp),%rcx
    8ecb:	48 89 4c 24 58       	mov    %rcx,0x58(%rsp)
    8ed0:	48 83 7c 24 58 00    	cmpq   $0x0,0x58(%rsp)
    8ed6:	48 89 7c 24 18       	mov    %rdi,0x18(%rsp)
    8edb:	48 89 44 24 10       	mov    %rax,0x10(%rsp)
    8ee0:	74 29                	je     8f0b <_ZN75_$LT$core..str..Chars$u20$as$u20$core..iter..traits..iterator..Iterator$GT$9size_hint17hd91aa8f3e5327e49E+0x7b>
    8ee2:	48 8b 44 24 40       	mov    0x40(%rsp),%rax
    8ee7:	48 8b 40 08          	mov    0x8(%rax),%rax
    8eeb:	48 8b 4c 24 50       	mov    0x50(%rsp),%rcx
    8ef0:	48 29 c8             	sub    %rcx,%rax
    8ef3:	48 89 44 24 60       	mov    %rax,0x60(%rsp)
    8ef8:	48 8b 44 24 60       	mov    0x60(%rsp),%rax
    8efd:	31 d2                	xor    %edx,%edx
    8eff:	48 f7 74 24 58       	divq   0x58(%rsp)
    8f04:	48 89 44 24 48       	mov    %rax,0x48(%rsp)
    8f09:	eb 18                	jmp    8f23 <_ZN75_$LT$core..str..Chars$u20$as$u20$core..iter..traits..iterator..Iterator$GT$9size_hint17hd91aa8f3e5327e49E+0x93>
    8f0b:	48 8b 44 24 40       	mov    0x40(%rsp),%rax
    8f10:	48 8b 78 08          	mov    0x8(%rax),%rdi
    8f14:	48 8b 74 24 50       	mov    0x50(%rsp),%rsi
    8f19:	e8 42 2a 00 00       	call   b960 <_ZN4core3num23_$LT$impl$u20$usize$GT$12wrapping_sub17h43a5262a6b5f97e5E>
    8f1e:	48 89 44 24 48       	mov    %rax,0x48(%rsp)
    8f23:	48 8b 44 24 48       	mov    0x48(%rsp),%rax
    8f28:	48 89 44 24 28       	mov    %rax,0x28(%rsp)
    8f2d:	48 8b 44 24 28       	mov    0x28(%rsp),%rax
    8f32:	48 05 03 00 00 00    	add    $0x3,%rax
    8f38:	48 89 44 24 08       	mov    %rax,0x8(%rsp)
    8f3d:	48 8b 44 24 08       	mov    0x8(%rsp),%rax
    8f42:	48 c1 e8 02          	shr    $0x2,%rax
    8f46:	48 8b 4c 24 28       	mov    0x28(%rsp),%rcx
    8f4b:	48 89 4c 24 38       	mov    %rcx,0x38(%rsp)
    8f50:	48 c7 44 24 30 01 00 	movq   $0x1,0x30(%rsp)
    8f57:	00 00 
    8f59:	48 8b 4c 24 18       	mov    0x18(%rsp),%rcx
    8f5e:	48 89 01             	mov    %rax,(%rcx)
    8f61:	48 8b 44 24 30       	mov    0x30(%rsp),%rax
    8f66:	48 8b 54 24 38       	mov    0x38(%rsp),%rdx
    8f6b:	48 89 41 08          	mov    %rax,0x8(%rcx)
    8f6f:	48 89 51 10          	mov    %rdx,0x10(%rcx)
    8f73:	48 8b 44 24 10       	mov    0x10(%rsp),%rax
    8f78:	48 83 c4 78          	add    $0x78,%rsp
    8f7c:	c3                   	ret
    8f7d:	0f 1f 00             	nopl   (%rax)

0000000000008f80 <_ZN90_$LT$core..ops..range..RangeFull$u20$as$u20$core..slice..SliceIndex$LT$$u5b$T$u5d$$GT$$GT$9index_mut17h25085c4ea7eee363E>:
    8f80:	48 83 ec 18          	sub    $0x18,%rsp
    8f84:	48 89 7c 24 08       	mov    %rdi,0x8(%rsp)
    8f89:	48 89 74 24 10       	mov    %rsi,0x10(%rsp)
    8f8e:	48 8b 44 24 08       	mov    0x8(%rsp),%rax
    8f93:	48 8b 54 24 10       	mov    0x10(%rsp),%rdx
    8f98:	48 83 c4 18          	add    $0x18,%rsp
    8f9c:	c3                   	ret
    8f9d:	0f 1f 00             	nopl   (%rax)

0000000000008fa0 <_ZN90_$LT$core..ops..range..RangeFull$u20$as$u20$core..slice..SliceIndex$LT$$u5b$T$u5d$$GT$$GT$9index_mut17hc781e5d90f5ec04dE>:
    8fa0:	48 83 ec 18          	sub    $0x18,%rsp
    8fa4:	48 89 7c 24 08       	mov    %rdi,0x8(%rsp)
    8fa9:	48 89 74 24 10       	mov    %rsi,0x10(%rsp)
    8fae:	48 8b 44 24 08       	mov    0x8(%rsp),%rax
    8fb3:	48 8b 54 24 10       	mov    0x10(%rsp),%rdx
    8fb8:	48 83 c4 18          	add    $0x18,%rsp
    8fbc:	c3                   	ret
    8fbd:	0f 1f 00             	nopl   (%rax)

0000000000008fc0 <_ZN4core6option15Option$LT$T$GT$14unwrap_or_else17h5a27ec82016b2b4aE>:
    8fc0:	48 83 ec 48          	sub    $0x48,%rsp
    8fc4:	48 89 7c 24 08       	mov    %rdi,0x8(%rsp)
    8fc9:	48 89 74 24 10       	mov    %rsi,0x10(%rsp)
    8fce:	c6 44 24 36 00       	movb   $0x0,0x36(%rsp)
    8fd3:	c6 44 24 37 00       	movb   $0x0,0x37(%rsp)
    8fd8:	c6 44 24 36 01       	movb   $0x1,0x36(%rsp)
    8fdd:	c6 44 24 37 01       	movb   $0x1,0x37(%rsp)
    8fe2:	48 8b 44 24 08       	mov    0x8(%rsp),%rax
    8fe7:	48 85 c0             	test   %rax,%rax
    8fea:	74 10                	je     8ffc <_ZN4core6option15Option$LT$T$GT$14unwrap_or_else17h5a27ec82016b2b4aE+0x3c>
    8fec:	eb 00                	jmp    8fee <_ZN4core6option15Option$LT$T$GT$14unwrap_or_else17h5a27ec82016b2b4aE+0x2e>
    8fee:	eb 1e                	jmp    900e <_ZN4core6option15Option$LT$T$GT$14unwrap_or_else17h5a27ec82016b2b4aE+0x4e>
    8ff0:	48 8b 7c 24 38       	mov    0x38(%rsp),%rdi
    8ff5:	e8 f6 c0 ff ff       	call   50f0 <_Unwind_Resume@plt>
    8ffa:	0f 0b                	ud2
    8ffc:	c6 44 24 37 00       	movb   $0x0,0x37(%rsp)
    9001:	e8 6a d1 ff ff       	call   6170 <_ZN5alloc7raw_vec19RawVec$LT$T$C$A$GT$11allocate_in28_$u7b$$u7b$closure$u7d$$u7d$17hb99e1bfa850bd50dE>
    9006:	48 89 04 24          	mov    %rax,(%rsp)
    900a:	eb 1d                	jmp    9029 <_ZN4core6option15Option$LT$T$GT$14unwrap_or_else17h5a27ec82016b2b4aE+0x69>
    900c:	0f 0b                	ud2
    900e:	c6 44 24 36 00       	movb   $0x0,0x36(%rsp)
    9013:	48 8b 44 24 10       	mov    0x10(%rsp),%rax
    9018:	48 89 44 24 28       	mov    %rax,0x28(%rsp)
    901d:	48 8b 44 24 28       	mov    0x28(%rsp),%rax
    9022:	48 89 44 24 20       	mov    %rax,0x20(%rsp)
    9027:	eb 36                	jmp    905f <_ZN4core6option15Option$LT$T$GT$14unwrap_or_else17h5a27ec82016b2b4aE+0x9f>
    9029:	48 8b 04 24          	mov    (%rsp),%rax
    902d:	48 89 44 24 20       	mov    %rax,0x20(%rsp)
    9032:	eb 2b                	jmp    905f <_ZN4core6option15Option$LT$T$GT$14unwrap_or_else17h5a27ec82016b2b4aE+0x9f>
    9034:	48 83 7c 24 08 01    	cmpq   $0x1,0x8(%rsp)
    903a:	74 36                	je     9072 <_ZN4core6option15Option$LT$T$GT$14unwrap_or_else17h5a27ec82016b2b4aE+0xb2>
    903c:	eb 42                	jmp    9080 <_ZN4core6option15Option$LT$T$GT$14unwrap_or_else17h5a27ec82016b2b4aE+0xc0>
    903e:	f6 44 24 36 01       	testb  $0x1,0x36(%rsp)
    9043:	74 ab                	je     8ff0 <_ZN4core6option15Option$LT$T$GT$14unwrap_or_else17h5a27ec82016b2b4aE+0x30>
    9045:	c6 44 24 36 00       	movb   $0x0,0x36(%rsp)
    904a:	eb a4                	jmp    8ff0 <_ZN4core6option15Option$LT$T$GT$14unwrap_or_else17h5a27ec82016b2b4aE+0x30>
    904c:	eb a2                	jmp    8ff0 <_ZN4core6option15Option$LT$T$GT$14unwrap_or_else17h5a27ec82016b2b4aE+0x30>
    904e:	48 83 7c 24 08 01    	cmpq   $0x1,0x8(%rsp)
    9054:	74 e8                	je     903e <_ZN4core6option15Option$LT$T$GT$14unwrap_or_else17h5a27ec82016b2b4aE+0x7e>
    9056:	eb f4                	jmp    904c <_ZN4core6option15Option$LT$T$GT$14unwrap_or_else17h5a27ec82016b2b4aE+0x8c>
    9058:	c6 44 24 37 00       	movb   $0x0,0x37(%rsp)
    905d:	eb d5                	jmp    9034 <_ZN4core6option15Option$LT$T$GT$14unwrap_or_else17h5a27ec82016b2b4aE+0x74>
    905f:	f6 44 24 37 01       	testb  $0x1,0x37(%rsp)
    9064:	75 f2                	jne    9058 <_ZN4core6option15Option$LT$T$GT$14unwrap_or_else17h5a27ec82016b2b4aE+0x98>
    9066:	eb cc                	jmp    9034 <_ZN4core6option15Option$LT$T$GT$14unwrap_or_else17h5a27ec82016b2b4aE+0x74>
    9068:	48 8b 44 24 20       	mov    0x20(%rsp),%rax
    906d:	48 83 c4 48          	add    $0x48,%rsp
    9071:	c3                   	ret
    9072:	f6 44 24 36 01       	testb  $0x1,0x36(%rsp)
    9077:	74 ef                	je     9068 <_ZN4core6option15Option$LT$T$GT$14unwrap_or_else17h5a27ec82016b2b4aE+0xa8>
    9079:	c6 44 24 36 00       	movb   $0x0,0x36(%rsp)
    907e:	eb e8                	jmp    9068 <_ZN4core6option15Option$LT$T$GT$14unwrap_or_else17h5a27ec82016b2b4aE+0xa8>
    9080:	eb e6                	jmp    9068 <_ZN4core6option15Option$LT$T$GT$14unwrap_or_else17h5a27ec82016b2b4aE+0xa8>
    9082:	48 89 44 24 38       	mov    %rax,0x38(%rsp)
    9087:	89 54 24 40          	mov    %edx,0x40(%rsp)
    908b:	eb c1                	jmp    904e <_ZN4core6option15Option$LT$T$GT$14unwrap_or_else17h5a27ec82016b2b4aE+0x8e>
    908d:	0f 1f 00             	nopl   (%rax)

0000000000009090 <_ZN4core6option15Option$LT$T$GT$14unwrap_or_else17hd46995080191addeE>:
    9090:	48 83 ec 48          	sub    $0x48,%rsp
    9094:	48 89 7c 24 08       	mov    %rdi,0x8(%rsp)
    9099:	48 89 74 24 10       	mov    %rsi,0x10(%rsp)
    909e:	c6 44 24 36 00       	movb   $0x0,0x36(%rsp)
    90a3:	c6 44 24 37 00       	movb   $0x0,0x37(%rsp)
    90a8:	c6 44 24 36 01       	movb   $0x1,0x36(%rsp)
    90ad:	c6 44 24 37 01       	movb   $0x1,0x37(%rsp)
    90b2:	48 8b 44 24 08       	mov    0x8(%rsp),%rax
    90b7:	48 85 c0             	test   %rax,%rax
    90ba:	74 10                	je     90cc <_ZN4core6option15Option$LT$T$GT$14unwrap_or_else17hd46995080191addeE+0x3c>
    90bc:	eb 00                	jmp    90be <_ZN4core6option15Option$LT$T$GT$14unwrap_or_else17hd46995080191addeE+0x2e>
    90be:	eb 1e                	jmp    90de <_ZN4core6option15Option$LT$T$GT$14unwrap_or_else17hd46995080191addeE+0x4e>
    90c0:	48 8b 7c 24 38       	mov    0x38(%rsp),%rdi
    90c5:	e8 26 c0 ff ff       	call   50f0 <_Unwind_Resume@plt>
    90ca:	0f 0b                	ud2
    90cc:	c6 44 24 37 00       	movb   $0x0,0x37(%rsp)
    90d1:	e8 6a d0 ff ff       	call   6140 <_ZN5alloc7raw_vec19RawVec$LT$T$C$A$GT$11allocate_in28_$u7b$$u7b$closure$u7d$$u7d$17h3c5de0500a7bd499E>
    90d6:	48 89 04 24          	mov    %rax,(%rsp)
    90da:	eb 1d                	jmp    90f9 <_ZN4core6option15Option$LT$T$GT$14unwrap_or_else17hd46995080191addeE+0x69>
    90dc:	0f 0b                	ud2
    90de:	c6 44 24 36 00       	movb   $0x0,0x36(%rsp)
    90e3:	48 8b 44 24 10       	mov    0x10(%rsp),%rax
    90e8:	48 89 44 24 28       	mov    %rax,0x28(%rsp)
    90ed:	48 8b 44 24 28       	mov    0x28(%rsp),%rax
    90f2:	48 89 44 24 20       	mov    %rax,0x20(%rsp)
    90f7:	eb 36                	jmp    912f <_ZN4core6option15Option$LT$T$GT$14unwrap_or_else17hd46995080191addeE+0x9f>
    90f9:	48 8b 04 24          	mov    (%rsp),%rax
    90fd:	48 89 44 24 20       	mov    %rax,0x20(%rsp)
    9102:	eb 2b                	jmp    912f <_ZN4core6option15Option$LT$T$GT$14unwrap_or_else17hd46995080191addeE+0x9f>
    9104:	48 83 7c 24 08 01    	cmpq   $0x1,0x8(%rsp)
    910a:	74 36                	je     9142 <_ZN4core6option15Option$LT$T$GT$14unwrap_or_else17hd46995080191addeE+0xb2>
    910c:	eb 42                	jmp    9150 <_ZN4core6option15Option$LT$T$GT$14unwrap_or_else17hd46995080191addeE+0xc0>
    910e:	f6 44 24 36 01       	testb  $0x1,0x36(%rsp)
    9113:	74 ab                	je     90c0 <_ZN4core6option15Option$LT$T$GT$14unwrap_or_else17hd46995080191addeE+0x30>
    9115:	c6 44 24 36 00       	movb   $0x0,0x36(%rsp)
    911a:	eb a4                	jmp    90c0 <_ZN4core6option15Option$LT$T$GT$14unwrap_or_else17hd46995080191addeE+0x30>
    911c:	eb a2                	jmp    90c0 <_ZN4core6option15Option$LT$T$GT$14unwrap_or_else17hd46995080191addeE+0x30>
    911e:	48 83 7c 24 08 01    	cmpq   $0x1,0x8(%rsp)
    9124:	74 e8                	je     910e <_ZN4core6option15Option$LT$T$GT$14unwrap_or_else17hd46995080191addeE+0x7e>
    9126:	eb f4                	jmp    911c <_ZN4core6option15Option$LT$T$GT$14unwrap_or_else17hd46995080191addeE+0x8c>
    9128:	c6 44 24 37 00       	movb   $0x0,0x37(%rsp)
    912d:	eb d5                	jmp    9104 <_ZN4core6option15Option$LT$T$GT$14unwrap_or_else17hd46995080191addeE+0x74>
    912f:	f6 44 24 37 01       	testb  $0x1,0x37(%rsp)
    9134:	75 f2                	jne    9128 <_ZN4core6option15Option$LT$T$GT$14unwrap_or_else17hd46995080191addeE+0x98>
    9136:	eb cc                	jmp    9104 <_ZN4core6option15Option$LT$T$GT$14unwrap_or_else17hd46995080191addeE+0x74>
    9138:	48 8b 44 24 20       	mov    0x20(%rsp),%rax
    913d:	48 83 c4 48          	add    $0x48,%rsp
    9141:	c3                   	ret
    9142:	f6 44 24 36 01       	testb  $0x1,0x36(%rsp)
    9147:	74 ef                	je     9138 <_ZN4core6option15Option$LT$T$GT$14unwrap_or_else17hd46995080191addeE+0xa8>
    9149:	c6 44 24 36 00       	movb   $0x0,0x36(%rsp)
    914e:	eb e8                	jmp    9138 <_ZN4core6option15Option$LT$T$GT$14unwrap_or_else17hd46995080191addeE+0xa8>
    9150:	eb e6                	jmp    9138 <_ZN4core6option15Option$LT$T$GT$14unwrap_or_else17hd46995080191addeE+0xa8>
    9152:	48 89 44 24 38       	mov    %rax,0x38(%rsp)
    9157:	89 54 24 40          	mov    %edx,0x40(%rsp)
    915b:	eb c1                	jmp    911e <_ZN4core6option15Option$LT$T$GT$14unwrap_or_else17hd46995080191addeE+0x8e>
    915d:	0f 1f 00             	nopl   (%rax)

0000000000009160 <_ZN4core6option15Option$LT$T$GT$3map17h3054f3fedb02a18bE>:
    9160:	48 83 ec 38          	sub    $0x38,%rsp
    9164:	89 7c 24 08          	mov    %edi,0x8(%rsp)
    9168:	89 74 24 0c          	mov    %esi,0xc(%rsp)
    916c:	c6 44 24 26 00       	movb   $0x0,0x26(%rsp)
    9171:	c6 44 24 27 00       	movb   $0x0,0x27(%rsp)
    9176:	c6 44 24 26 01       	movb   $0x1,0x26(%rsp)
    917b:	c6 44 24 27 01       	movb   $0x1,0x27(%rsp)
    9180:	8b 44 24 08          	mov    0x8(%rsp),%eax
    9184:	89 c1                	mov    %eax,%ecx
    9186:	48 85 c9             	test   %rcx,%rcx
    9189:	74 10                	je     919b <_ZN4core6option15Option$LT$T$GT$3map17h3054f3fedb02a18bE+0x3b>
    918b:	eb 00                	jmp    918d <_ZN4core6option15Option$LT$T$GT$3map17h3054f3fedb02a18bE+0x2d>
